
main.elf:     file format elf32-avr

Sections:
Idx Name          Size      VMA       LMA       File off  Algn
  0 .data         00000388  00800100  00002ef6  00002f8a  2**0
                  CONTENTS, ALLOC, LOAD, DATA
  1 .text         00002ef6  00000000  00000000  00000094  2**1
                  CONTENTS, ALLOC, LOAD, READONLY, CODE
  2 .bss          00000192  00800488  00800488  00003312  2**0
                  ALLOC
  3 .comment      00000030  00000000  00000000  00003312  2**0
                  CONTENTS, READONLY
  4 .debug_aranges 00000790  00000000  00000000  00003342  2**0
                  CONTENTS, READONLY, DEBUGGING
  5 .debug_info   0000d561  00000000  00000000  00003ad2  2**0
                  CONTENTS, READONLY, DEBUGGING
  6 .debug_abbrev 00001fbe  00000000  00000000  00011033  2**0
                  CONTENTS, READONLY, DEBUGGING
  7 .debug_line   0000389d  00000000  00000000  00012ff1  2**0
                  CONTENTS, READONLY, DEBUGGING
  8 .debug_frame  000016dc  00000000  00000000  00016890  2**2
                  CONTENTS, READONLY, DEBUGGING
  9 .debug_str    000013f8  00000000  00000000  00017f6c  2**0
                  CONTENTS, READONLY, DEBUGGING
 10 .debug_loc    0000d071  00000000  00000000  00019364  2**0
                  CONTENTS, READONLY, DEBUGGING
 11 .debug_ranges 00000e00  00000000  00000000  000263d5  2**0
                  CONTENTS, READONLY, DEBUGGING

Disassembly of section .text:

00000000 <__vectors>:
       0:	0c 94 46 00 	jmp	0x8c	; 0x8c <__ctors_end>
       4:	0c 94 63 00 	jmp	0xc6	; 0xc6 <__bad_interrupt>
       8:	0c 94 63 00 	jmp	0xc6	; 0xc6 <__bad_interrupt>
       c:	0c 94 63 00 	jmp	0xc6	; 0xc6 <__bad_interrupt>
      10:	0c 94 63 00 	jmp	0xc6	; 0xc6 <__bad_interrupt>
      14:	0c 94 63 00 	jmp	0xc6	; 0xc6 <__bad_interrupt>
      18:	0c 94 63 00 	jmp	0xc6	; 0xc6 <__bad_interrupt>
      1c:	0c 94 63 00 	jmp	0xc6	; 0xc6 <__bad_interrupt>
      20:	0c 94 63 00 	jmp	0xc6	; 0xc6 <__bad_interrupt>
      24:	0c 94 c9 12 	jmp	0x2592	; 0x2592 <__vector_9>
      28:	0c 94 82 12 	jmp	0x2504	; 0x2504 <__vector_10>
      2c:	0c 94 63 00 	jmp	0xc6	; 0xc6 <__bad_interrupt>
      30:	0c 94 78 12 	jmp	0x24f0	; 0x24f0 <__vector_12>
      34:	0c 94 63 00 	jmp	0xc6	; 0xc6 <__bad_interrupt>
      38:	0c 94 67 12 	jmp	0x24ce	; 0x24ce <__vector_14>
      3c:	0c 94 5e 11 	jmp	0x22bc	; 0x22bc <__vector_15>
      40:	0c 94 eb 10 	jmp	0x21d6	; 0x21d6 <__vector_16>
      44:	0c 94 63 00 	jmp	0xc6	; 0xc6 <__bad_interrupt>
      48:	0c 94 27 15 	jmp	0x2a4e	; 0x2a4e <__vector_18>
      4c:	0c 94 63 00 	jmp	0xc6	; 0xc6 <__bad_interrupt>
      50:	0c 94 31 15 	jmp	0x2a62	; 0x2a62 <__vector_20>
      54:	0c 94 a1 00 	jmp	0x142	; 0x142 <__vector_21>
      58:	0c 94 63 00 	jmp	0xc6	; 0xc6 <__bad_interrupt>
      5c:	0c 94 63 00 	jmp	0xc6	; 0xc6 <__bad_interrupt>
      60:	0c 94 63 00 	jmp	0xc6	; 0xc6 <__bad_interrupt>
      64:	0c 94 63 00 	jmp	0xc6	; 0xc6 <__bad_interrupt>
      68:	0c 94 30 13 	jmp	0x2660	; 0x2660 <__vector_26>
      6c:	0c 94 63 00 	jmp	0xc6	; 0xc6 <__bad_interrupt>
      70:	0c 94 63 00 	jmp	0xc6	; 0xc6 <__bad_interrupt>
      74:	0c 94 d3 12 	jmp	0x25a6	; 0x25a6 <__vector_29>
      78:	0c 94 89 15 	jmp	0x2b12	; 0x2b12 <__vector_30>
      7c:	0c 94 63 00 	jmp	0xc6	; 0xc6 <__bad_interrupt>
      80:	0c 94 cb 16 	jmp	0x2d96	; 0x2d96 <__vector_32>
      84:	0c 94 63 00 	jmp	0xc6	; 0xc6 <__bad_interrupt>
      88:	0c 94 63 00 	jmp	0xc6	; 0xc6 <__bad_interrupt>

0000008c <__ctors_end>:
      8c:	11 24       	eor	r1, r1
      8e:	1f be       	out	0x3f, r1	; 63
      90:	cf ef       	ldi	r28, 0xFF	; 255
      92:	d0 e1       	ldi	r29, 0x10	; 16
      94:	de bf       	out	0x3e, r29	; 62
      96:	cd bf       	out	0x3d, r28	; 61

00000098 <__do_copy_data>:
      98:	14 e0       	ldi	r17, 0x04	; 4
      9a:	a0 e0       	ldi	r26, 0x00	; 0
      9c:	b1 e0       	ldi	r27, 0x01	; 1
      9e:	e6 ef       	ldi	r30, 0xF6	; 246
      a0:	fe e2       	ldi	r31, 0x2E	; 46
      a2:	02 c0       	rjmp	.+4      	; 0xa8 <__do_copy_data+0x10>
      a4:	05 90       	lpm	r0, Z+
      a6:	0d 92       	st	X+, r0
      a8:	a8 38       	cpi	r26, 0x88	; 136
      aa:	b1 07       	cpc	r27, r17
      ac:	d9 f7       	brne	.-10     	; 0xa4 <__do_copy_data+0xc>

000000ae <__do_clear_bss>:
      ae:	26 e0       	ldi	r18, 0x06	; 6
      b0:	a8 e8       	ldi	r26, 0x88	; 136
      b2:	b4 e0       	ldi	r27, 0x04	; 4
      b4:	01 c0       	rjmp	.+2      	; 0xb8 <.do_clear_bss_start>

000000b6 <.do_clear_bss_loop>:
      b6:	1d 92       	st	X+, r1

000000b8 <.do_clear_bss_start>:
      b8:	aa 31       	cpi	r26, 0x1A	; 26
      ba:	b2 07       	cpc	r27, r18
      bc:	e1 f7       	brne	.-8      	; 0xb6 <.do_clear_bss_loop>
      be:	0e 94 fb 13 	call	0x27f6	; 0x27f6 <main>
      c2:	0c 94 79 17 	jmp	0x2ef2	; 0x2ef2 <_exit>

000000c6 <__bad_interrupt>:
      c6:	0c 94 00 00 	jmp	0	; 0x0 <__vectors>

000000ca <ADC_GPIO_Init>:
      ca:	81 b3       	in	r24, 0x11	; 17
      cc:	80 63       	ori	r24, 0x30	; 48
      ce:	81 bb       	out	0x11, r24	; 17
      d0:	82 b3       	in	r24, 0x12	; 18
      d2:	80 63       	ori	r24, 0x30	; 48
      d4:	82 bb       	out	0x12, r24	; 18
      d6:	e2 e6       	ldi	r30, 0x62	; 98
      d8:	f0 e0       	ldi	r31, 0x00	; 0
      da:	80 81       	ld	r24, Z
      dc:	8f 71       	andi	r24, 0x1F	; 31
      de:	80 83       	st	Z, r24
      e0:	e1 e6       	ldi	r30, 0x61	; 97
      e2:	f0 e0       	ldi	r31, 0x00	; 0
      e4:	80 81       	ld	r24, Z
      e6:	8f 71       	andi	r24, 0x1F	; 31
      e8:	80 83       	st	Z, r24
      ea:	08 95       	ret

000000ec <ADC_Mode_Init>:
      ec:	16 b8       	out	0x06, r1	; 6
      ee:	80 e6       	ldi	r24, 0x60	; 96
      f0:	87 b9       	out	0x07, r24	; 7
      f2:	80 e8       	ldi	r24, 0x80	; 128
      f4:	88 b9       	out	0x08, r24	; 8
      f6:	86 b1       	in	r24, 0x06	; 6
      f8:	86 68       	ori	r24, 0x86	; 134
      fa:	86 b9       	out	0x06, r24	; 6
      fc:	08 95       	ret

000000fe <ADC_Init>:
      fe:	0e 94 65 00 	call	0xca	; 0xca <ADC_GPIO_Init>
     102:	0e 94 76 00 	call	0xec	; 0xec <ADC_Mode_Init>
     106:	08 95       	ret

00000108 <ADC_Get>:
     108:	37 98       	cbi	0x06, 7	; 6
     10a:	97 e0       	ldi	r25, 0x07	; 7
     10c:	9a 95       	dec	r25
     10e:	f1 f7       	brne	.-4      	; 0x10c <ADC_Get+0x4>
     110:	00 c0       	rjmp	.+0      	; 0x112 <ADC_Get+0xa>
     112:	97 b1       	in	r25, 0x07	; 7
     114:	90 7e       	andi	r25, 0xE0	; 224
     116:	89 2b       	or	r24, r25
     118:	87 b9       	out	0x07, r24	; 7
     11a:	87 e0       	ldi	r24, 0x07	; 7
     11c:	8a 95       	dec	r24
     11e:	f1 f7       	brne	.-4      	; 0x11c <ADC_Get+0x14>
     120:	00 c0       	rjmp	.+0      	; 0x122 <ADC_Get+0x1a>
     122:	86 b1       	in	r24, 0x06	; 6
     124:	80 6c       	ori	r24, 0xC0	; 192
     126:	86 b9       	out	0x06, r24	; 6
     128:	34 9b       	sbis	0x06, 4	; 6
     12a:	fe cf       	rjmp	.-4      	; 0x128 <ADC_Get+0x20>
     12c:	34 9a       	sbi	0x06, 4	; 6
     12e:	97 e0       	ldi	r25, 0x07	; 7
     130:	9a 95       	dec	r25
     132:	f1 f7       	brne	.-4      	; 0x130 <ADC_Get+0x28>
     134:	00 c0       	rjmp	.+0      	; 0x136 <ADC_Get+0x2e>
     136:	37 98       	cbi	0x06, 7	; 6
     138:	84 b1       	in	r24, 0x04	; 4
     13a:	25 b1       	in	r18, 0x05	; 5
     13c:	90 e0       	ldi	r25, 0x00	; 0
     13e:	92 2b       	or	r25, r18
     140:	08 95       	ret

00000142 <__vector_21>:
     142:	1f 92       	push	r1
     144:	0f 92       	push	r0
     146:	0f b6       	in	r0, 0x3f	; 63
     148:	0f 92       	push	r0
     14a:	11 24       	eor	r1, r1
     14c:	2f 93       	push	r18
     14e:	8f 93       	push	r24
     150:	9f 93       	push	r25
     152:	34 9a       	sbi	0x06, 4	; 6
     154:	84 b1       	in	r24, 0x04	; 4
     156:	90 e0       	ldi	r25, 0x00	; 0
     158:	90 93 89 04 	sts	0x0489, r25
     15c:	80 93 88 04 	sts	0x0488, r24
     160:	25 b1       	in	r18, 0x05	; 5
     162:	92 2b       	or	r25, r18
     164:	90 93 89 04 	sts	0x0489, r25
     168:	80 93 88 04 	sts	0x0488, r24
     16c:	3d 9b       	sbis	0x07, 5	; 7
     16e:	0d c0       	rjmp	.+26     	; 0x18a <__vector_21+0x48>
     170:	00 24       	eor	r0, r0
     172:	88 0f       	add	r24, r24
     174:	99 1f       	adc	r25, r25
     176:	00 1c       	adc	r0, r0
     178:	88 0f       	add	r24, r24
     17a:	99 1f       	adc	r25, r25
     17c:	00 1c       	adc	r0, r0
     17e:	89 2f       	mov	r24, r25
     180:	90 2d       	mov	r25, r0
     182:	90 93 89 04 	sts	0x0489, r25
     186:	80 93 88 04 	sts	0x0488, r24
     18a:	9f 91       	pop	r25
     18c:	8f 91       	pop	r24
     18e:	2f 91       	pop	r18
     190:	0f 90       	pop	r0
     192:	0f be       	out	0x3f, r0	; 63
     194:	0f 90       	pop	r0
     196:	1f 90       	pop	r1
     198:	18 95       	reti

0000019a <BEEP_Init>:
     19a:	b8 9a       	sbi	0x17, 0	; 23
     19c:	c0 98       	cbi	0x18, 0	; 24
     19e:	08 95       	ret

000001a0 <BEEP>:
     1a0:	c0 9a       	sbi	0x18, 0	; 24
     1a2:	88 23       	and	r24, r24
     1a4:	51 f0       	breq	.+20     	; 0x1ba <BEEP+0x1a>
     1a6:	90 e0       	ldi	r25, 0x00	; 0
     1a8:	ef ef       	ldi	r30, 0xFF	; 255
     1aa:	f7 ed       	ldi	r31, 0xD7	; 215
     1ac:	31 97       	sbiw	r30, 0x01	; 1
     1ae:	f1 f7       	brne	.-4      	; 0x1ac <BEEP+0xc>
     1b0:	00 c0       	rjmp	.+0      	; 0x1b2 <BEEP+0x12>
     1b2:	00 00       	nop
     1b4:	9f 5f       	subi	r25, 0xFF	; 255
     1b6:	98 13       	cpse	r25, r24
     1b8:	f7 cf       	rjmp	.-18     	; 0x1a8 <BEEP+0x8>
     1ba:	c0 98       	cbi	0x18, 0	; 24
     1bc:	08 95       	ret

000001be <EEPROM_Write_Buf>:
     1be:	1f ba       	out	0x1f, r1	; 31
     1c0:	9f ef       	ldi	r25, 0xFF	; 255
     1c2:	96 0f       	add	r25, r22
     1c4:	66 23       	and	r22, r22
     1c6:	79 f0       	breq	.+30     	; 0x1e6 <EEPROM_Write_Buf+0x28>
     1c8:	e4 2f       	mov	r30, r20
     1ca:	f5 2f       	mov	r31, r21
     1cc:	84 1b       	sub	r24, r20
     1ce:	e1 99       	sbic	0x1c, 1	; 28
     1d0:	fe cf       	rjmp	.-4      	; 0x1ce <EEPROM_Write_Buf+0x10>
     1d2:	28 2f       	mov	r18, r24
     1d4:	2e 0f       	add	r18, r30
     1d6:	2e bb       	out	0x1e, r18	; 30
     1d8:	21 91       	ld	r18, Z+
     1da:	2d bb       	out	0x1d, r18	; 29
     1dc:	e2 9a       	sbi	0x1c, 2	; 28
     1de:	e1 98       	cbi	0x1c, 1	; 28
     1e0:	e1 9a       	sbi	0x1c, 1	; 28
     1e2:	91 50       	subi	r25, 0x01	; 1
     1e4:	a0 f7       	brcc	.-24     	; 0x1ce <EEPROM_Write_Buf+0x10>
     1e6:	08 95       	ret

000001e8 <EEPROM_Read_Buf>:
     1e8:	e1 99       	sbic	0x1c, 1	; 28
     1ea:	fe cf       	rjmp	.-4      	; 0x1e8 <EEPROM_Read_Buf>
     1ec:	1f ba       	out	0x1f, r1	; 31
     1ee:	9f ef       	ldi	r25, 0xFF	; 255
     1f0:	96 0f       	add	r25, r22
     1f2:	66 23       	and	r22, r22
     1f4:	59 f0       	breq	.+22     	; 0x20c <EEPROM_Read_Buf+0x24>
     1f6:	e4 2f       	mov	r30, r20
     1f8:	f5 2f       	mov	r31, r21
     1fa:	84 1b       	sub	r24, r20
     1fc:	28 2f       	mov	r18, r24
     1fe:	2e 0f       	add	r18, r30
     200:	2e bb       	out	0x1e, r18	; 30
     202:	e0 9a       	sbi	0x1c, 0	; 28
     204:	2d b3       	in	r18, 0x1d	; 29
     206:	21 93       	st	Z+, r18
     208:	91 50       	subi	r25, 0x01	; 1
     20a:	c0 f7       	brcc	.-16     	; 0x1fc <EEPROM_Read_Buf+0x14>
     20c:	08 95       	ret

0000020e <Write_Init_EEPROM>:
     20e:	40 ec       	ldi	r20, 0xC0	; 192
     210:	51 e0       	ldi	r21, 0x01	; 1
     212:	62 e0       	ldi	r22, 0x02	; 2
     214:	80 e0       	ldi	r24, 0x00	; 0
     216:	90 e0       	ldi	r25, 0x00	; 0
     218:	0e 94 df 00 	call	0x1be	; 0x1be <EEPROM_Write_Buf>
     21c:	08 95       	ret

0000021e <Read_Init_EEPROM>:
     21e:	cf 93       	push	r28
     220:	df 93       	push	r29
     222:	ec 01       	movw	r28, r24
     224:	ac 01       	movw	r20, r24
     226:	62 e0       	ldi	r22, 0x02	; 2
     228:	80 e0       	ldi	r24, 0x00	; 0
     22a:	90 e0       	ldi	r25, 0x00	; 0
     22c:	0e 94 f4 00 	call	0x1e8	; 0x1e8 <EEPROM_Read_Buf>
     230:	ce 01       	movw	r24, r28
     232:	df 91       	pop	r29
     234:	cf 91       	pop	r28
     236:	08 95       	ret

00000238 <Check_Init>:
     238:	cf 93       	push	r28
     23a:	df 93       	push	r29
     23c:	00 d0       	rcall	.+0      	; 0x23e <Check_Init+0x6>
     23e:	00 d0       	rcall	.+0      	; 0x240 <Check_Init+0x8>
     240:	cd b7       	in	r28, 0x3d	; 61
     242:	de b7       	in	r29, 0x3e	; 62
     244:	19 82       	std	Y+1, r1	; 0x01
     246:	1a 82       	std	Y+2, r1	; 0x02
     248:	1b 82       	std	Y+3, r1	; 0x03
     24a:	1c 82       	std	Y+4, r1	; 0x04
     24c:	ce 01       	movw	r24, r28
     24e:	01 96       	adiw	r24, 0x01	; 1
     250:	0e 94 0f 01 	call	0x21e	; 0x21e <Read_Init_EEPROM>
     254:	60 ec       	ldi	r22, 0xC0	; 192
     256:	71 e0       	ldi	r23, 0x01	; 1
     258:	ce 01       	movw	r24, r28
     25a:	01 96       	adiw	r24, 0x01	; 1
     25c:	0e 94 57 17 	call	0x2eae	; 0x2eae <strstr>
     260:	0f 90       	pop	r0
     262:	0f 90       	pop	r0
     264:	0f 90       	pop	r0
     266:	0f 90       	pop	r0
     268:	df 91       	pop	r29
     26a:	cf 91       	pop	r28
     26c:	08 95       	ret

0000026e <Write_STATUS_EEPROM>:
     26e:	ac 01       	movw	r20, r24
     270:	62 e0       	ldi	r22, 0x02	; 2
     272:	84 e0       	ldi	r24, 0x04	; 4
     274:	90 e0       	ldi	r25, 0x00	; 0
     276:	0e 94 df 00 	call	0x1be	; 0x1be <EEPROM_Write_Buf>
     27a:	08 95       	ret

0000027c <Read_STATUS_EEPROM>:
     27c:	cf 93       	push	r28
     27e:	df 93       	push	r29
     280:	ec 01       	movw	r28, r24
     282:	ac 01       	movw	r20, r24
     284:	62 e0       	ldi	r22, 0x02	; 2
     286:	84 e0       	ldi	r24, 0x04	; 4
     288:	90 e0       	ldi	r25, 0x00	; 0
     28a:	0e 94 f4 00 	call	0x1e8	; 0x1e8 <EEPROM_Read_Buf>
     28e:	ce 01       	movw	r24, r28
     290:	df 91       	pop	r29
     292:	cf 91       	pop	r28
     294:	08 95       	ret

00000296 <Write_TIME_EEPROM>:
     296:	cf 93       	push	r28
     298:	df 93       	push	r29
     29a:	00 d0       	rcall	.+0      	; 0x29c <Write_TIME_EEPROM+0x6>
     29c:	cd b7       	in	r28, 0x3d	; 61
     29e:	de b7       	in	r29, 0x3e	; 62
     2a0:	99 83       	std	Y+1, r25	; 0x01
     2a2:	8a 83       	std	Y+2, r24	; 0x02
     2a4:	ae 01       	movw	r20, r28
     2a6:	4f 5f       	subi	r20, 0xFF	; 255
     2a8:	5f 4f       	sbci	r21, 0xFF	; 255
     2aa:	62 e0       	ldi	r22, 0x02	; 2
     2ac:	88 e0       	ldi	r24, 0x08	; 8
     2ae:	90 e0       	ldi	r25, 0x00	; 0
     2b0:	0e 94 df 00 	call	0x1be	; 0x1be <EEPROM_Write_Buf>
     2b4:	0f 90       	pop	r0
     2b6:	0f 90       	pop	r0
     2b8:	df 91       	pop	r29
     2ba:	cf 91       	pop	r28
     2bc:	08 95       	ret

000002be <Read_TIME_EEPROM>:
     2be:	cf 93       	push	r28
     2c0:	df 93       	push	r29
     2c2:	00 d0       	rcall	.+0      	; 0x2c4 <Read_TIME_EEPROM+0x6>
     2c4:	00 d0       	rcall	.+0      	; 0x2c6 <Read_TIME_EEPROM+0x8>
     2c6:	cd b7       	in	r28, 0x3d	; 61
     2c8:	de b7       	in	r29, 0x3e	; 62
     2ca:	19 82       	std	Y+1, r1	; 0x01
     2cc:	1a 82       	std	Y+2, r1	; 0x02
     2ce:	1b 82       	std	Y+3, r1	; 0x03
     2d0:	1c 82       	std	Y+4, r1	; 0x04
     2d2:	ae 01       	movw	r20, r28
     2d4:	4f 5f       	subi	r20, 0xFF	; 255
     2d6:	5f 4f       	sbci	r21, 0xFF	; 255
     2d8:	62 e0       	ldi	r22, 0x02	; 2
     2da:	88 e0       	ldi	r24, 0x08	; 8
     2dc:	90 e0       	ldi	r25, 0x00	; 0
     2de:	0e 94 f4 00 	call	0x1e8	; 0x1e8 <EEPROM_Read_Buf>
     2e2:	89 81       	ldd	r24, Y+1	; 0x01
     2e4:	90 e0       	ldi	r25, 0x00	; 0
     2e6:	98 2f       	mov	r25, r24
     2e8:	88 27       	eor	r24, r24
     2ea:	2a 81       	ldd	r18, Y+2	; 0x02
     2ec:	82 2b       	or	r24, r18
     2ee:	0f 90       	pop	r0
     2f0:	0f 90       	pop	r0
     2f2:	0f 90       	pop	r0
     2f4:	0f 90       	pop	r0
     2f6:	df 91       	pop	r29
     2f8:	cf 91       	pop	r28
     2fa:	08 95       	ret

000002fc <Write_FLOW_EEPROM>:
     2fc:	cf 93       	push	r28
     2fe:	df 93       	push	r29
     300:	00 d0       	rcall	.+0      	; 0x302 <Write_FLOW_EEPROM+0x6>
     302:	cd b7       	in	r28, 0x3d	; 61
     304:	de b7       	in	r29, 0x3e	; 62
     306:	99 83       	std	Y+1, r25	; 0x01
     308:	8a 83       	std	Y+2, r24	; 0x02
     30a:	ae 01       	movw	r20, r28
     30c:	4f 5f       	subi	r20, 0xFF	; 255
     30e:	5f 4f       	sbci	r21, 0xFF	; 255
     310:	62 e0       	ldi	r22, 0x02	; 2
     312:	80 e1       	ldi	r24, 0x10	; 16
     314:	90 e0       	ldi	r25, 0x00	; 0
     316:	0e 94 df 00 	call	0x1be	; 0x1be <EEPROM_Write_Buf>
     31a:	0f 90       	pop	r0
     31c:	0f 90       	pop	r0
     31e:	df 91       	pop	r29
     320:	cf 91       	pop	r28
     322:	08 95       	ret

00000324 <Read_FLOW_EEPROM>:
     324:	cf 93       	push	r28
     326:	df 93       	push	r29
     328:	00 d0       	rcall	.+0      	; 0x32a <Read_FLOW_EEPROM+0x6>
     32a:	00 d0       	rcall	.+0      	; 0x32c <Read_FLOW_EEPROM+0x8>
     32c:	cd b7       	in	r28, 0x3d	; 61
     32e:	de b7       	in	r29, 0x3e	; 62
     330:	19 82       	std	Y+1, r1	; 0x01
     332:	1a 82       	std	Y+2, r1	; 0x02
     334:	1b 82       	std	Y+3, r1	; 0x03
     336:	1c 82       	std	Y+4, r1	; 0x04
     338:	ae 01       	movw	r20, r28
     33a:	4f 5f       	subi	r20, 0xFF	; 255
     33c:	5f 4f       	sbci	r21, 0xFF	; 255
     33e:	62 e0       	ldi	r22, 0x02	; 2
     340:	80 e1       	ldi	r24, 0x10	; 16
     342:	90 e0       	ldi	r25, 0x00	; 0
     344:	0e 94 f4 00 	call	0x1e8	; 0x1e8 <EEPROM_Read_Buf>
     348:	89 81       	ldd	r24, Y+1	; 0x01
     34a:	90 e0       	ldi	r25, 0x00	; 0
     34c:	98 2f       	mov	r25, r24
     34e:	88 27       	eor	r24, r24
     350:	2a 81       	ldd	r18, Y+2	; 0x02
     352:	82 2b       	or	r24, r18
     354:	0f 90       	pop	r0
     356:	0f 90       	pop	r0
     358:	0f 90       	pop	r0
     35a:	0f 90       	pop	r0
     35c:	df 91       	pop	r29
     35e:	cf 91       	pop	r28
     360:	08 95       	ret

00000362 <Write_RAW_EEPROM>:
     362:	ac 01       	movw	r20, r24
     364:	64 e0       	ldi	r22, 0x04	; 4
     366:	88 e1       	ldi	r24, 0x18	; 24
     368:	90 e0       	ldi	r25, 0x00	; 0
     36a:	0e 94 df 00 	call	0x1be	; 0x1be <EEPROM_Write_Buf>
     36e:	08 95       	ret

00000370 <Read_RAW_EEPROM>:
     370:	cf 93       	push	r28
     372:	df 93       	push	r29
     374:	ec 01       	movw	r28, r24
     376:	ac 01       	movw	r20, r24
     378:	64 e0       	ldi	r22, 0x04	; 4
     37a:	88 e1       	ldi	r24, 0x18	; 24
     37c:	90 e0       	ldi	r25, 0x00	; 0
     37e:	0e 94 f4 00 	call	0x1e8	; 0x1e8 <EEPROM_Read_Buf>
     382:	ce 01       	movw	r24, r28
     384:	df 91       	pop	r29
     386:	cf 91       	pop	r28
     388:	08 95       	ret

0000038a <Write_PURE_EEPROM>:
     38a:	ac 01       	movw	r20, r24
     38c:	64 e0       	ldi	r22, 0x04	; 4
     38e:	80 e2       	ldi	r24, 0x20	; 32
     390:	90 e0       	ldi	r25, 0x00	; 0
     392:	0e 94 df 00 	call	0x1be	; 0x1be <EEPROM_Write_Buf>
     396:	08 95       	ret

00000398 <Read_PURE_EEPROM>:
     398:	cf 93       	push	r28
     39a:	df 93       	push	r29
     39c:	ec 01       	movw	r28, r24
     39e:	ac 01       	movw	r20, r24
     3a0:	64 e0       	ldi	r22, 0x04	; 4
     3a2:	80 e2       	ldi	r24, 0x20	; 32
     3a4:	90 e0       	ldi	r25, 0x00	; 0
     3a6:	0e 94 f4 00 	call	0x1e8	; 0x1e8 <EEPROM_Read_Buf>
     3aa:	ce 01       	movw	r24, r28
     3ac:	df 91       	pop	r29
}
unsigned char *Read_PURE_EEPROM(unsigned char *pure)
{
	EEPROM_Read_Buf(32,4,pure);
	return pure;
}
     3ae:	cf 91       	pop	r28
     3b0:	08 95       	ret

000003b2 <Write_CMD_EEPROM>:


void Write_CMD_EEPROM(unsigned int cmd)
{
     3b2:	cf 93       	push	r28
     3b4:	df 93       	push	r29
     3b6:	00 d0       	rcall	.+0      	; 0x3b8 <Write_CMD_EEPROM+0x6>
     3b8:	00 d0       	rcall	.+0      	; 0x3ba <Write_CMD_EEPROM+0x8>
     3ba:	cd b7       	in	r28, 0x3d	; 61
     3bc:	de b7       	in	r29, 0x3e	; 62
	unsigned char *cmd_tmp[2]={0};
	cmd_tmp[0] = cmd >> 8;
     3be:	99 83       	std	Y+1, r25	; 0x01
     3c0:	1a 82       	std	Y+2, r1	; 0x02
	cmd_tmp[1] = cmd;
     3c2:	8b 83       	std	Y+3, r24	; 0x03
     3c4:	9c 83       	std	Y+4, r25	; 0x04
	EEPROM_Write_Buf(40,2,cmd_tmp);
     3c6:	ae 01       	movw	r20, r28
     3c8:	4f 5f       	subi	r20, 0xFF	; 255
     3ca:	5f 4f       	sbci	r21, 0xFF	; 255
     3cc:	62 e0       	ldi	r22, 0x02	; 2
     3ce:	88 e2       	ldi	r24, 0x28	; 40
     3d0:	90 e0       	ldi	r25, 0x00	; 0
     3d2:	0e 94 df 00 	call	0x1be	; 0x1be <EEPROM_Write_Buf>
}
     3d6:	0f 90       	pop	r0
     3d8:	0f 90       	pop	r0
     3da:	0f 90       	pop	r0
     3dc:	0f 90       	pop	r0
     3de:	df 91       	pop	r29
     3e0:	cf 91       	pop	r28
     3e2:	08 95       	ret

000003e4 <Read_CMD_EEPROM>:
unsigned int Read_CMD_EEPROM()
{
     3e4:	cf 93       	push	r28
     3e6:	df 93       	push	r29
     3e8:	00 d0       	rcall	.+0      	; 0x3ea <Read_CMD_EEPROM+0x6>
     3ea:	cd b7       	in	r28, 0x3d	; 61
     3ec:	de b7       	in	r29, 0x3e	; 62
	unsigned char cmd_tmp[2] = {0};
     3ee:	1a 82       	std	Y+2, r1	; 0x02
     3f0:	19 82       	std	Y+1, r1	; 0x01
	EEPROM_Read_Buf(40,2,cmd_tmp);
     3f2:	ae 01       	movw	r20, r28
     3f4:	4f 5f       	subi	r20, 0xFF	; 255
     3f6:	5f 4f       	sbci	r21, 0xFF	; 255
     3f8:	62 e0       	ldi	r22, 0x02	; 2
     3fa:	88 e2       	ldi	r24, 0x28	; 40
     3fc:	90 e0       	ldi	r25, 0x00	; 0
     3fe:	0e 94 f4 00 	call	0x1e8	; 0x1e8 <EEPROM_Read_Buf>
	return ((cmd_tmp[0]<<8) | cmd_tmp[1]);
     402:	89 81       	ldd	r24, Y+1	; 0x01
     404:	90 e0       	ldi	r25, 0x00	; 0
     406:	98 2f       	mov	r25, r24
     408:	88 27       	eor	r24, r24
     40a:	2a 81       	ldd	r18, Y+2	; 0x02
}
     40c:	82 2b       	or	r24, r18
     40e:	0f 90       	pop	r0
     410:	0f 90       	pop	r0
     412:	df 91       	pop	r29
     414:	cf 91       	pop	r28
     416:	08 95       	ret

00000418 <Read_COUNT_CHONGXI_EEPROM>:
	tmp[0] = count_chongxi >> 8;
	tmp[1] = count_chongxi;
	EEPROM_Write_Buf(44,2,tmp);
}
unsigned int Read_COUNT_CHONGXI_EEPROM()
{
     418:	cf 93       	push	r28
     41a:	df 93       	push	r29
     41c:	00 d0       	rcall	.+0      	; 0x41e <Read_COUNT_CHONGXI_EEPROM+0x6>
     41e:	cd b7       	in	r28, 0x3d	; 61
     420:	de b7       	in	r29, 0x3e	; 62
	unsigned char tmp[2] = {0};
     422:	1a 82       	std	Y+2, r1	; 0x02
     424:	19 82       	std	Y+1, r1	; 0x01
	EEPROM_Read_Buf(44,2,tmp);
     426:	ae 01       	movw	r20, r28
     428:	4f 5f       	subi	r20, 0xFF	; 255
     42a:	5f 4f       	sbci	r21, 0xFF	; 255
     42c:	62 e0       	ldi	r22, 0x02	; 2
     42e:	8c e2       	ldi	r24, 0x2C	; 44
     430:	90 e0       	ldi	r25, 0x00	; 0
     432:	0e 94 f4 00 	call	0x1e8	; 0x1e8 <EEPROM_Read_Buf>
	return ((tmp[0]<<8) | tmp[1]);
     436:	89 81       	ldd	r24, Y+1	; 0x01
     438:	90 e0       	ldi	r25, 0x00	; 0
     43a:	98 2f       	mov	r25, r24
     43c:	88 27       	eor	r24, r24
     43e:	2a 81       	ldd	r18, Y+2	; 0x02

}
     440:	82 2b       	or	r24, r18
     442:	0f 90       	pop	r0
     444:	0f 90       	pop	r0
     446:	df 91       	pop	r29
     448:	cf 91       	pop	r28
     44a:	08 95       	ret

0000044c <Write_YU_SUM_FLOW_EEPROM>:

void Write_YU_SUM_FLOW_EEPROM(unsigned int yu_sum_flow)
{
     44c:	cf 93       	push	r28
     44e:	df 93       	push	r29
     450:	00 d0       	rcall	.+0      	; 0x452 <Write_YU_SUM_FLOW_EEPROM+0x6>
     452:	cd b7       	in	r28, 0x3d	; 61
     454:	de b7       	in	r29, 0x3e	; 62
	unsigned char tmp[2]={0};
	tmp[0] = yu_sum_flow >> 8;
     456:	99 83       	std	Y+1, r25	; 0x01
	tmp[1] = yu_sum_flow;
     458:	8a 83       	std	Y+2, r24	; 0x02
	EEPROM_Write_Buf(48,2,tmp);
     45a:	ae 01       	movw	r20, r28
     45c:	4f 5f       	subi	r20, 0xFF	; 255
     45e:	5f 4f       	sbci	r21, 0xFF	; 255
     460:	62 e0       	ldi	r22, 0x02	; 2
     462:	80 e3       	ldi	r24, 0x30	; 48
     464:	90 e0       	ldi	r25, 0x00	; 0
     466:	0e 94 df 00 	call	0x1be	; 0x1be <EEPROM_Write_Buf>
}
     46a:	0f 90       	pop	r0
     46c:	0f 90       	pop	r0
     46e:	df 91       	pop	r29
     470:	cf 91       	pop	r28
     472:	08 95       	ret

00000474 <Read_YU_SUM_FLOW_EEPROM>:
unsigned int Read_YU_SUM_FLOW_EEPROM()
{
     474:	cf 93       	push	r28
     476:	df 93       	push	r29
     478:	00 d0       	rcall	.+0      	; 0x47a <Read_YU_SUM_FLOW_EEPROM+0x6>
     47a:	cd b7       	in	r28, 0x3d	; 61
     47c:	de b7       	in	r29, 0x3e	; 62
	unsigned char tmp[2] = {0};
     47e:	1a 82       	std	Y+2, r1	; 0x02
     480:	19 82       	std	Y+1, r1	; 0x01
	EEPROM_Read_Buf(48,2,tmp);
     482:	ae 01       	movw	r20, r28
     484:	4f 5f       	subi	r20, 0xFF	; 255
     486:	5f 4f       	sbci	r21, 0xFF	; 255
     488:	62 e0       	ldi	r22, 0x02	; 2
     48a:	80 e3       	ldi	r24, 0x30	; 48
     48c:	90 e0       	ldi	r25, 0x00	; 0
     48e:	0e 94 f4 00 	call	0x1e8	; 0x1e8 <EEPROM_Read_Buf>
	return ((tmp[0]<<8) | tmp[1]);
     492:	89 81       	ldd	r24, Y+1	; 0x01
     494:	90 e0       	ldi	r25, 0x00	; 0
     496:	98 2f       	mov	r25, r24
     498:	88 27       	eor	r24, r24
     49a:	2a 81       	ldd	r18, Y+2	; 0x02

}
     49c:	82 2b       	or	r24, r18
     49e:	0f 90       	pop	r0
     4a0:	0f 90       	pop	r0
     4a2:	df 91       	pop	r29
     4a4:	cf 91       	pop	r28
     4a6:	08 95       	ret

000004a8 <Write_VIUV_TIME_EEPROM>:




void Write_VIUV_TIME_EEPROM(unsigned char viuv_time)
{
     4a8:	0f 93       	push	r16
     4aa:	1f 93       	push	r17
     4ac:	cf 93       	push	r28
     4ae:	df 93       	push	r29
     4b0:	cd b7       	in	r28, 0x3d	; 61
     4b2:	de b7       	in	r29, 0x3e	; 62
     4b4:	28 97       	sbiw	r28, 0x08	; 8
     4b6:	0f b6       	in	r0, 0x3f	; 63
     4b8:	f8 94       	cli
     4ba:	de bf       	out	0x3e, r29	; 62
     4bc:	0f be       	out	0x3f, r0	; 63
     4be:	cd bf       	out	0x3d, r28	; 61
	unsigned char viuv_time_tmp[8] = {0};
     4c0:	8e 01       	movw	r16, r28
     4c2:	0f 5f       	subi	r16, 0xFF	; 255
     4c4:	1f 4f       	sbci	r17, 0xFF	; 255
     4c6:	98 e0       	ldi	r25, 0x08	; 8
     4c8:	f8 01       	movw	r30, r16
     4ca:	11 92       	st	Z+, r1
     4cc:	9a 95       	dec	r25
     4ce:	e9 f7       	brne	.-6      	; 0x4ca <Write_VIUV_TIME_EEPROM+0x22>
	itoa(viuv_time_tmp,viuv_time); 	
     4d0:	68 2f       	mov	r22, r24
     4d2:	70 e0       	ldi	r23, 0x00	; 0
     4d4:	c8 01       	movw	r24, r16
     4d6:	0e 94 8c 07 	call	0xf18	; 0xf18 <itoa>
	EEPROM_Write_Buf(52,4,viuv_time_tmp);
     4da:	a8 01       	movw	r20, r16
     4dc:	64 e0       	ldi	r22, 0x04	; 4
     4de:	84 e3       	ldi	r24, 0x34	; 52
     4e0:	90 e0       	ldi	r25, 0x00	; 0
     4e2:	0e 94 df 00 	call	0x1be	; 0x1be <EEPROM_Write_Buf>
}
     4e6:	28 96       	adiw	r28, 0x08	; 8
     4e8:	0f b6       	in	r0, 0x3f	; 63
     4ea:	f8 94       	cli
     4ec:	de bf       	out	0x3e, r29	; 62
     4ee:	0f be       	out	0x3f, r0	; 63
     4f0:	cd bf       	out	0x3d, r28	; 61
     4f2:	df 91       	pop	r29
     4f4:	cf 91       	pop	r28
     4f6:	1f 91       	pop	r17
     4f8:	0f 91       	pop	r16
     4fa:	08 95       	ret

000004fc <Read__VIUV_TIME_EEPROM>:

unsigned int Read__VIUV_TIME_EEPROM(void)
{
     4fc:	0f 93       	push	r16
     4fe:	1f 93       	push	r17
     500:	cf 93       	push	r28
     502:	df 93       	push	r29
     504:	cd b7       	in	r28, 0x3d	; 61
     506:	de b7       	in	r29, 0x3e	; 62
     508:	28 97       	sbiw	r28, 0x08	; 8
     50a:	0f b6       	in	r0, 0x3f	; 63
     50c:	f8 94       	cli
     50e:	de bf       	out	0x3e, r29	; 62
     510:	0f be       	out	0x3f, r0	; 63
     512:	cd bf       	out	0x3d, r28	; 61
	unsigned char viuv_time_tmp[8] = {0};
     514:	8e 01       	movw	r16, r28
     516:	0f 5f       	subi	r16, 0xFF	; 255
     518:	1f 4f       	sbci	r17, 0xFF	; 255
     51a:	88 e0       	ldi	r24, 0x08	; 8
     51c:	f8 01       	movw	r30, r16
     51e:	11 92       	st	Z+, r1
     520:	8a 95       	dec	r24
     522:	e9 f7       	brne	.-6      	; 0x51e <Read__VIUV_TIME_EEPROM+0x22>
	EEPROM_Read_Buf(52,4,viuv_time_tmp);
     524:	a8 01       	movw	r20, r16
     526:	64 e0       	ldi	r22, 0x04	; 4
     528:	84 e3       	ldi	r24, 0x34	; 52
     52a:	90 e0       	ldi	r25, 0x00	; 0
     52c:	0e 94 f4 00 	call	0x1e8	; 0x1e8 <EEPROM_Read_Buf>
	return atoi(viuv_time_tmp);
     530:	c8 01       	movw	r24, r16
     532:	0e 94 39 17 	call	0x2e72	; 0x2e72 <atoi>
}
     536:	28 96       	adiw	r28, 0x08	; 8
     538:	0f b6       	in	r0, 0x3f	; 63
     53a:	f8 94       	cli
     53c:	de bf       	out	0x3e, r29	; 62
     53e:	0f be       	out	0x3f, r0	; 63
     540:	cd bf       	out	0x3d, r28	; 61
     542:	df 91       	pop	r29
     544:	cf 91       	pop	r28
     546:	1f 91       	pop	r17
     548:	0f 91       	pop	r16
     54a:	08 95       	ret

0000054c <Write_Filte_CntV_EEPROM>:
#if 1
//60-72
void Write_Filte_CntV_EEPROM(unsigned char *filte_cntv)
{
	EEPROM_Write_Buf(60,2*Filte_num,filte_cntv);
     54c:	ac 01       	movw	r20, r24
     54e:	66 e0       	ldi	r22, 0x06	; 6
     550:	8c e3       	ldi	r24, 0x3C	; 60
     552:	90 e0       	ldi	r25, 0x00	; 0
     554:	0e 94 df 00 	call	0x1be	; 0x1be <EEPROM_Write_Buf>
     558:	08 95       	ret

0000055a <Read_Filte_CntV_EEPROM>:
}
unsigned char *Read_Filte_CntV_EEPROM(unsigned char *filte_cntv)
{
     55a:	cf 93       	push	r28
     55c:	df 93       	push	r29
     55e:	ec 01       	movw	r28, r24
	EEPROM_Read_Buf(60,8,filte_cntv);
     560:	ac 01       	movw	r20, r24
     562:	68 e0       	ldi	r22, 0x08	; 8
     564:	8c e3       	ldi	r24, 0x3C	; 60
     566:	90 e0       	ldi	r25, 0x00	; 0
     568:	0e 94 f4 00 	call	0x1e8	; 0x1e8 <EEPROM_Read_Buf>
	return filte_cntv;
}
     56c:	ce 01       	movw	r24, r28
     56e:	df 91       	pop	r29
     570:	cf 91       	pop	r28
     572:	08 95       	ret

00000574 <GET_GPRS_Signal>:
{
	unsigned char n = 2,i;
	unsigned int timeout;//超时操作
	while(n--)
	{
		memset(GPRS_Receive,0,100);
     574:	af 92       	push	r10
     576:	bf 92       	push	r11
     578:	cf 92       	push	r12
     57a:	df 92       	push	r13
		timeout = 0xFFFF;
		GPRS_Receive_Flag = 0;
     57c:	ef 92       	push	r14
     57e:	ff 92       	push	r15
     580:	0f 93       	push	r16
     582:	1f 93       	push	r17
		USART1_Transmit_String(cmd);
     584:	cf 93       	push	r28
     586:	df 93       	push	r29
     588:	80 91 a5 01 	lds	r24, 0x01A5
		while((!(GPRS_Receive_Flag &((0x1<<4)|(0x1<<1)|(0x1<<3)|((0x1<<6)))))&& (timeout --))
     58c:	85 ff       	sbrs	r24, 5
     58e:	09 c0       	rjmp	.+18     	; 0x5a2 <GET_GPRS_Signal+0x2e>
     590:	2f ef       	ldi	r18, 0xFF	; 255
     592:	3f e3       	ldi	r19, 0x3F	; 63
     594:	45 e6       	ldi	r20, 0x65	; 101
     596:	21 50       	subi	r18, 0x01	; 1
     598:	30 40       	sbci	r19, 0x00	; 0
     59a:	40 40       	sbci	r20, 0x00	; 0
     59c:	e1 f7       	brne	.-8      	; 0x596 <GET_GPRS_Signal+0x22>
     59e:	00 c0       	rjmp	.+0      	; 0x5a0 <GET_GPRS_Signal+0x2c>
     5a0:	00 00       	nop
	#else
		//round up by default
		__ticks_dc = (uint32_t)(ceil(fabs(__tmp)));
	#endif

	__builtin_avr_delay_cycles(__ticks_dc);
     5a2:	12 e0       	ldi	r17, 0x02	; 2
     5a4:	cd e1       	ldi	r28, 0x1D	; 29
     5a6:	d5 e0       	ldi	r29, 0x05	; 5
     5a8:	04 e6       	ldi	r16, 0x64	; 100
     5aa:	ee 24       	eor	r14, r14
     5ac:	ea 94       	dec	r14
     5ae:	ff 24       	eor	r15, r15
     5b0:	fa 94       	dec	r15
     5b2:	fe 01       	movw	r30, r28
     5b4:	20 2f       	mov	r18, r16
     5b6:	11 92       	st	Z+, r1
     5b8:	2a 95       	dec	r18
     5ba:	e9 f7       	brne	.-6      	; 0x5b6 <GET_GPRS_Signal+0x42>
     5bc:	10 92 a6 01 	sts	0x01A6, r1
			_delay_us(10);
		if(GPRS_Receive_Flag&(0x1<<4))
     5c0:	10 92 a5 01 	sts	0x01A5, r1
		{
			return 0;
		}

		if(	LCD_Ico &(0x01 << 6) )
     5c4:	81 e8       	ldi	r24, 0x81	; 129
     5c6:	91 e0       	ldi	r25, 0x01	; 1
     5c8:	0e 94 5b 15 	call	0x2ab6	; 0x2ab6 <USART1_Transmit_String>
		{
			return 0 ;
		}
		if(SCQ != 0)
     5cc:	20 91 a5 01 	lds	r18, 0x01A5
     5d0:	30 91 a6 01 	lds	r19, 0x01A6
		{
			return 0;
		}
		if(GPRS_Receive_Flag&(0x1<<3))
     5d4:	c9 01       	movw	r24, r18
     5d6:	8a 75       	andi	r24, 0x5A	; 90
		{
			return 0 ;
		}
		if(GPRS_Receive_Flag&(0x01<<9))
     5d8:	99 27       	eor	r25, r25
     5da:	89 2b       	or	r24, r25
	#else
		//round up by default
		__ticks_dc = (uint32_t)(ceil(fabs(__tmp)));
	#endif

	__builtin_avr_delay_cycles(__ticks_dc);
     5dc:	89 f4       	brne	.+34     	; 0x600 <GET_GPRS_Signal+0x8c>
     5de:	8e 2d       	mov	r24, r14
     5e0:	9f 2d       	mov	r25, r15
     5e2:	35 e2       	ldi	r19, 0x25	; 37
     5e4:	3a 95       	dec	r19
     5e6:	f1 f7       	brne	.-4      	; 0x5e4 <GET_GPRS_Signal+0x70>
     5e8:	20 91 a5 01 	lds	r18, 0x01A5
     5ec:	30 91 a6 01 	lds	r19, 0x01A6
		{
			_delay_ms(3000);
		}
		if(GPRS_Receive_Flag&(0x01<<1))
     5f0:	a9 01       	movw	r20, r18
     5f2:	4a 75       	andi	r20, 0x5A	; 90
     5f4:	55 27       	eor	r21, r21
     5f6:	45 2b       	or	r20, r21
     5f8:	19 f4       	brne	.+6      	; 0x600 <GET_GPRS_Signal+0x8c>
     5fa:	01 97       	sbiw	r24, 0x01	; 1
     5fc:	00 97       	sbiw	r24, 0x00	; 0
     5fe:	89 f7       	brne	.-30     	; 0x5e2 <GET_GPRS_Signal+0x6e>
     600:	24 fd       	sbrc	r18, 4
     602:	bb c3       	rjmp	.+1910   	; 0xd7a <GET_GPRS_Signal+0x806>
     604:	80 91 8b 04 	lds	r24, 0x048B
     608:	86 fd       	sbrc	r24, 6
}
inline unsigned char GPRS_Send_Cmd(unsigned char *cmd)
{
	unsigned char n = 2,i;
	unsigned int timeout;//超时操作
	while(n--)
     60a:	b7 c3       	rjmp	.+1902   	; 0xd7a <GET_GPRS_Signal+0x806>
     60c:	80 91 8c 04 	lds	r24, 0x048C
	{
		memset(GPRS_Receive,0,100);
		timeout = 0xFFFF;
		GPRS_Receive_Flag = 0;
		USART1_Transmit_String(cmd);
		while((!(GPRS_Receive_Flag &((0x1<<4)|(0x1<<1)|(0x1<<3)|((0x1<<6)))))&& (timeout --))
     610:	81 11       	cpse	r24, r1
     612:	b3 c3       	rjmp	.+1894   	; 0xd7a <GET_GPRS_Signal+0x806>
     614:	23 fd       	sbrc	r18, 3
     616:	b1 c3       	rjmp	.+1890   	; 0xd7a <GET_GPRS_Signal+0x806>
     618:	31 ff       	sbrs	r19, 1
     61a:	09 c0       	rjmp	.+18     	; 0x62e <GET_GPRS_Signal+0xba>
     61c:	4f ef       	ldi	r20, 0xFF	; 255
     61e:	8f e3       	ldi	r24, 0x3F	; 63
     620:	95 e6       	ldi	r25, 0x65	; 101
     622:	41 50       	subi	r20, 0x01	; 1
     624:	80 40       	sbci	r24, 0x00	; 0
     626:	90 40       	sbci	r25, 0x00	; 0
{
	unsigned char n = 2,i;
	unsigned int timeout;//超时操作
	while(n--)
	{
		memset(GPRS_Receive,0,100);
     628:	e1 f7       	brne	.-8      	; 0x622 <GET_GPRS_Signal+0xae>
     62a:	00 c0       	rjmp	.+0      	; 0x62c <GET_GPRS_Signal+0xb8>
     62c:	00 00       	nop
     62e:	80 91 a5 01 	lds	r24, 0x01A5
		timeout = 0xFFFF;
		GPRS_Receive_Flag = 0;
     632:	81 ff       	sbrs	r24, 1
     634:	09 c0       	rjmp	.+18     	; 0x648 <GET_GPRS_Signal+0xd4>
     636:	ef ef       	ldi	r30, 0xFF	; 255
     638:	ff e1       	ldi	r31, 0x1F	; 31
		USART1_Transmit_String(cmd);
     63a:	2a e0       	ldi	r18, 0x0A	; 10
     63c:	e1 50       	subi	r30, 0x01	; 1
     63e:	f0 40       	sbci	r31, 0x00	; 0
     640:	20 40       	sbci	r18, 0x00	; 0
		while((!(GPRS_Receive_Flag &((0x1<<4)|(0x1<<1)|(0x1<<3)|((0x1<<6)))))&& (timeout --))
     642:	e1 f7       	brne	.-8      	; 0x63c <GET_GPRS_Signal+0xc8>
     644:	00 c0       	rjmp	.+0      	; 0x646 <GET_GPRS_Signal+0xd2>
     646:	00 00       	nop
     648:	11 50       	subi	r17, 0x01	; 1
     64a:	09 f4       	brne	.+2      	; 0x64e <GET_GPRS_Signal+0xda>
     64c:	88 c3       	rjmp	.+1808   	; 0xd5e <GET_GPRS_Signal+0x7ea>
     64e:	b1 cf       	rjmp	.-158    	; 0x5b2 <GET_GPRS_Signal+0x3e>
     650:	d2 98       	cbi	0x1a, 2	; 26
     652:	3f ef       	ldi	r19, 0xFF	; 255
     654:	4f e5       	ldi	r20, 0x5F	; 95
     656:	83 e0       	ldi	r24, 0x03	; 3
	#else
		//round up by default
		__ticks_dc = (uint32_t)(ceil(fabs(__tmp)));
	#endif

	__builtin_avr_delay_cycles(__ticks_dc);
     658:	31 50       	subi	r19, 0x01	; 1
     65a:	40 40       	sbci	r20, 0x00	; 0
     65c:	80 40       	sbci	r24, 0x00	; 0
     65e:	e1 f7       	brne	.-8      	; 0x658 <GET_GPRS_Signal+0xe4>
     660:	00 c0       	rjmp	.+0      	; 0x662 <GET_GPRS_Signal+0xee>
     662:	00 00       	nop
     664:	ca 99       	sbic	0x19, 2	; 25
     666:	06 c0       	rjmp	.+12     	; 0x674 <GET_GPRS_Signal+0x100>
     668:	80 91 8b 04 	lds	r24, 0x048B
     66c:	8f 77       	andi	r24, 0x7F	; 127
     66e:	80 93 8b 04 	sts	0x048B, r24
     672:	30 c0       	rjmp	.+96     	; 0x6d4 <GET_GPRS_Signal+0x160>
     674:	d2 9a       	sbi	0x1a, 2	; 26
			_delay_us(10);
		if(GPRS_Receive_Flag&(0x1<<4))
     676:	da 98       	cbi	0x1b, 2	; 27
     678:	9f ef       	ldi	r25, 0xFF	; 255
		{
			return 0;
		}

		if(	LCD_Ico &(0x01 << 6) )
     67a:	ef e5       	ldi	r30, 0x5F	; 95
     67c:	f3 e0       	ldi	r31, 0x03	; 3
     67e:	91 50       	subi	r25, 0x01	; 1
     680:	e0 40       	sbci	r30, 0x00	; 0
		{
			return 0 ;
		}
		if(SCQ != 0)
     682:	f0 40       	sbci	r31, 0x00	; 0
     684:	e1 f7       	brne	.-8      	; 0x67e <GET_GPRS_Signal+0x10a>
     686:	00 c0       	rjmp	.+0      	; 0x688 <GET_GPRS_Signal+0x114>
     688:	00 00       	nop
		{
			return 0;
		}
		if(GPRS_Receive_Flag&(0x1<<3))
     68a:	92 9a       	sbi	0x12, 2	; 18
     68c:	80 91 a5 01 	lds	r24, 0x01A5
		{
			return 0 ;
		}
		if(GPRS_Receive_Flag&(0x01<<9))
     690:	85 fd       	sbrc	r24, 5
	#else
		//round up by default
		__ticks_dc = (uint32_t)(ceil(fabs(__tmp)));
	#endif

	__builtin_avr_delay_cycles(__ticks_dc);
     692:	85 c3       	rjmp	.+1802   	; 0xd9e <GET_GPRS_Signal+0x82a>
     694:	8d 2f       	mov	r24, r29
     696:	9c 2f       	mov	r25, r28
     698:	ef ef       	ldi	r30, 0xFF	; 255
     69a:	f7 ed       	ldi	r31, 0xD7	; 215
     69c:	31 97       	sbiw	r30, 0x01	; 1
     69e:	f1 f7       	brne	.-4      	; 0x69c <GET_GPRS_Signal+0x128>
     6a0:	00 c0       	rjmp	.+0      	; 0x6a2 <GET_GPRS_Signal+0x12e>
     6a2:	00 00       	nop
		{
			_delay_ms(3000);
		}
		if(GPRS_Receive_Flag&(0x01<<1))
     6a4:	20 91 a5 01 	lds	r18, 0x01A5
     6a8:	25 fd       	sbrc	r18, 5
     6aa:	79 c3       	rjmp	.+1778   	; 0xd9e <GET_GPRS_Signal+0x82a>
     6ac:	01 97       	sbiw	r24, 0x01	; 1
     6ae:	00 97       	sbiw	r24, 0x00	; 0
     6b0:	99 f7       	brne	.-26     	; 0x698 <GET_GPRS_Signal+0x124>
     6b2:	7c c3       	rjmp	.+1784   	; 0xdac <GET_GPRS_Signal+0x838>
     6b4:	ff ef       	ldi	r31, 0xFF	; 255
     6b6:	2f ea       	ldi	r18, 0xAF	; 175
     6b8:	31 e0       	ldi	r19, 0x01	; 1
     6ba:	f1 50       	subi	r31, 0x01	; 1
     6bc:	20 40       	sbci	r18, 0x00	; 0
     6be:	30 40       	sbci	r19, 0x00	; 0
}
inline unsigned char GPRS_Send_Cmd(unsigned char *cmd)
{
	unsigned char n = 2,i;
	unsigned int timeout;//超时操作
	while(n--)
     6c0:	e1 f7       	brne	.-8      	; 0x6ba <GET_GPRS_Signal+0x146>
     6c2:	00 c0       	rjmp	.+0      	; 0x6c4 <GET_GPRS_Signal+0x150>
     6c4:	00 00       	nop
	{
		memset(GPRS_Receive,0,100);
		timeout = 0xFFFF;
		GPRS_Receive_Flag = 0;
		USART1_Transmit_String(cmd);
		while((!(GPRS_Receive_Flag &((0x1<<4)|(0x1<<1)|(0x1<<3)|((0x1<<6)))))&& (timeout --))
     6c6:	20 91 a5 01 	lds	r18, 0x01A5
     6ca:	26 fd       	sbrc	r18, 6
     6cc:	03 c0       	rjmp	.+6      	; 0x6d4 <GET_GPRS_Signal+0x160>
     6ce:	01 97       	sbiw	r24, 0x01	; 1
     6d0:	00 97       	sbiw	r24, 0x00	; 0
     6d2:	81 f7       	brne	.-32     	; 0x6b4 <GET_GPRS_Signal+0x140>
     6d4:	10 92 8c 04 	sts	0x048C, r1
     6d8:	80 91 8b 04 	lds	r24, 0x048B
     6dc:	8f 7b       	andi	r24, 0xBF	; 191
{
	unsigned char n = 2,i;
	unsigned int timeout;//超时操作
	while(n--)
	{
		memset(GPRS_Receive,0,100);
     6de:	80 93 8b 04 	sts	0x048B, r24
     6e2:	a1 c3       	rjmp	.+1858   	; 0xe26 <GET_GPRS_Signal+0x8b2>
     6e4:	fe 01       	movw	r30, r28
     6e6:	20 2f       	mov	r18, r16
		timeout = 0xFFFF;
		GPRS_Receive_Flag = 0;
     6e8:	11 92       	st	Z+, r1
     6ea:	2a 95       	dec	r18
     6ec:	e9 f7       	brne	.-6      	; 0x6e8 <GET_GPRS_Signal+0x174>
     6ee:	10 92 a6 01 	sts	0x01A6, r1
		USART1_Transmit_String(cmd);
     6f2:	10 92 a5 01 	sts	0x01A5, r1
     6f6:	80 e7       	ldi	r24, 0x70	; 112
		while((!(GPRS_Receive_Flag &((0x1<<4)|(0x1<<1)|(0x1<<3)|((0x1<<6)))))&& (timeout --))
     6f8:	91 e0       	ldi	r25, 0x01	; 1
     6fa:	0e 94 5b 15 	call	0x2ab6	; 0x2ab6 <USART1_Transmit_String>
     6fe:	20 91 a5 01 	lds	r18, 0x01A5
     702:	30 91 a6 01 	lds	r19, 0x01A6
     706:	c9 01       	movw	r24, r18
     708:	8a 75       	andi	r24, 0x5A	; 90
     70a:	99 27       	eor	r25, r25
     70c:	89 2b       	or	r24, r25
	#else
		//round up by default
		__ticks_dc = (uint32_t)(ceil(fabs(__tmp)));
	#endif

	__builtin_avr_delay_cycles(__ticks_dc);
     70e:	89 f4       	brne	.+34     	; 0x732 <GET_GPRS_Signal+0x1be>
     710:	8e 2d       	mov	r24, r14
     712:	9f 2d       	mov	r25, r15
     714:	35 e2       	ldi	r19, 0x25	; 37
     716:	3a 95       	dec	r19
     718:	f1 f7       	brne	.-4      	; 0x716 <GET_GPRS_Signal+0x1a2>
     71a:	20 91 a5 01 	lds	r18, 0x01A5
     71e:	30 91 a6 01 	lds	r19, 0x01A6
     722:	a9 01       	movw	r20, r18
     724:	4a 75       	andi	r20, 0x5A	; 90
     726:	55 27       	eor	r21, r21
     728:	45 2b       	or	r20, r21
     72a:	19 f4       	brne	.+6      	; 0x732 <GET_GPRS_Signal+0x1be>
			_delay_us(10);
		if(GPRS_Receive_Flag&(0x1<<4))
     72c:	01 97       	sbiw	r24, 0x01	; 1
     72e:	00 97       	sbiw	r24, 0x00	; 0
		{
			return 0;
		}

		if(	LCD_Ico &(0x01 << 6) )
     730:	89 f7       	brne	.-30     	; 0x714 <GET_GPRS_Signal+0x1a0>
     732:	24 fd       	sbrc	r18, 4
     734:	3f c3       	rjmp	.+1662   	; 0xdb4 <GET_GPRS_Signal+0x840>
     736:	80 91 8b 04 	lds	r24, 0x048B
		{
			return 0 ;
		}
		if(SCQ != 0)
     73a:	86 fd       	sbrc	r24, 6
     73c:	3b c3       	rjmp	.+1654   	; 0xdb4 <GET_GPRS_Signal+0x840>
     73e:	80 91 8c 04 	lds	r24, 0x048C
		{
			return 0;
		}
		if(GPRS_Receive_Flag&(0x1<<3))
     742:	81 11       	cpse	r24, r1
		{
			return 0 ;
		}
		if(GPRS_Receive_Flag&(0x01<<9))
     744:	37 c3       	rjmp	.+1646   	; 0xdb4 <GET_GPRS_Signal+0x840>
     746:	23 fd       	sbrc	r18, 3
	#else
		//round up by default
		__ticks_dc = (uint32_t)(ceil(fabs(__tmp)));
	#endif

	__builtin_avr_delay_cycles(__ticks_dc);
     748:	35 c3       	rjmp	.+1642   	; 0xdb4 <GET_GPRS_Signal+0x840>
     74a:	31 ff       	sbrs	r19, 1
     74c:	09 c0       	rjmp	.+18     	; 0x760 <GET_GPRS_Signal+0x1ec>
     74e:	4f ef       	ldi	r20, 0xFF	; 255
     750:	8f e3       	ldi	r24, 0x3F	; 63
     752:	95 e6       	ldi	r25, 0x65	; 101
     754:	41 50       	subi	r20, 0x01	; 1
     756:	80 40       	sbci	r24, 0x00	; 0
     758:	90 40       	sbci	r25, 0x00	; 0
		{
			_delay_ms(3000);
		}
		if(GPRS_Receive_Flag&(0x01<<1))
     75a:	e1 f7       	brne	.-8      	; 0x754 <GET_GPRS_Signal+0x1e0>
     75c:	00 c0       	rjmp	.+0      	; 0x75e <GET_GPRS_Signal+0x1ea>
     75e:	00 00       	nop
     760:	80 91 a5 01 	lds	r24, 0x01A5
     764:	81 ff       	sbrs	r24, 1
     766:	09 c0       	rjmp	.+18     	; 0x77a <GET_GPRS_Signal+0x206>
     768:	ef ef       	ldi	r30, 0xFF	; 255
     76a:	ff e1       	ldi	r31, 0x1F	; 31
     76c:	2a e0       	ldi	r18, 0x0A	; 10
     76e:	e1 50       	subi	r30, 0x01	; 1
     770:	f0 40       	sbci	r31, 0x00	; 0
     772:	20 40       	sbci	r18, 0x00	; 0
     774:	e1 f7       	brne	.-8      	; 0x76e <GET_GPRS_Signal+0x1fa>
}
inline unsigned char GPRS_Send_Cmd(unsigned char *cmd)
{
	unsigned char n = 2,i;
	unsigned int timeout;//超时操作
	while(n--)
     776:	00 c0       	rjmp	.+0      	; 0x778 <GET_GPRS_Signal+0x204>
     778:	00 00       	nop
     77a:	11 50       	subi	r17, 0x01	; 1
	{
		memset(GPRS_Receive,0,100);
		timeout = 0xFFFF;
		GPRS_Receive_Flag = 0;
		USART1_Transmit_String(cmd);
		while((!(GPRS_Receive_Flag &((0x1<<4)|(0x1<<1)|(0x1<<3)|((0x1<<6)))))&& (timeout --))
     77c:	09 f4       	brne	.+2      	; 0x780 <GET_GPRS_Signal+0x20c>
     77e:	53 c3       	rjmp	.+1702   	; 0xe26 <GET_GPRS_Signal+0x8b2>
     780:	b1 cf       	rjmp	.-158    	; 0x6e4 <GET_GPRS_Signal+0x170>
     782:	fe 01       	movw	r30, r28
     784:	20 2f       	mov	r18, r16
     786:	11 92       	st	Z+, r1
     788:	2a 95       	dec	r18
     78a:	e9 f7       	brne	.-6      	; 0x786 <GET_GPRS_Signal+0x212>
     78c:	10 92 a6 01 	sts	0x01A6, r1
     790:	10 92 a5 01 	sts	0x01A5, r1
{
	unsigned char n = 2,i;
	unsigned int timeout;//超时操作
	while(n--)
	{
		memset(GPRS_Receive,0,100);
     794:	87 e6       	ldi	r24, 0x67	; 103
     796:	91 e0       	ldi	r25, 0x01	; 1
     798:	0e 94 5b 15 	call	0x2ab6	; 0x2ab6 <USART1_Transmit_String>
     79c:	20 91 a5 01 	lds	r18, 0x01A5
		timeout = 0xFFFF;
		GPRS_Receive_Flag = 0;
     7a0:	30 91 a6 01 	lds	r19, 0x01A6
     7a4:	c9 01       	movw	r24, r18
		USART1_Transmit_String(cmd);
     7a6:	8a 75       	andi	r24, 0x5A	; 90
     7a8:	99 27       	eor	r25, r25
     7aa:	89 2b       	or	r24, r25
     7ac:	89 f4       	brne	.+34     	; 0x7d0 <GET_GPRS_Signal+0x25c>
		while((!(GPRS_Receive_Flag &((0x1<<4)|(0x1<<1)|(0x1<<3)|((0x1<<6)))))&& (timeout --))
     7ae:	8e 2d       	mov	r24, r14
     7b0:	9f 2d       	mov	r25, r15
     7b2:	35 e2       	ldi	r19, 0x25	; 37
     7b4:	3a 95       	dec	r19
     7b6:	f1 f7       	brne	.-4      	; 0x7b4 <GET_GPRS_Signal+0x240>
     7b8:	20 91 a5 01 	lds	r18, 0x01A5
     7bc:	30 91 a6 01 	lds	r19, 0x01A6
     7c0:	a9 01       	movw	r20, r18
     7c2:	4a 75       	andi	r20, 0x5A	; 90
	#else
		//round up by default
		__ticks_dc = (uint32_t)(ceil(fabs(__tmp)));
	#endif

	__builtin_avr_delay_cycles(__ticks_dc);
     7c4:	55 27       	eor	r21, r21
     7c6:	45 2b       	or	r20, r21
     7c8:	19 f4       	brne	.+6      	; 0x7d0 <GET_GPRS_Signal+0x25c>
     7ca:	01 97       	sbiw	r24, 0x01	; 1
     7cc:	00 97       	sbiw	r24, 0x00	; 0
     7ce:	89 f7       	brne	.-30     	; 0x7b2 <GET_GPRS_Signal+0x23e>
     7d0:	24 fd       	sbrc	r18, 4
     7d2:	02 c3       	rjmp	.+1540   	; 0xdd8 <GET_GPRS_Signal+0x864>
     7d4:	80 91 8b 04 	lds	r24, 0x048B
     7d8:	86 fd       	sbrc	r24, 6
     7da:	fe c2       	rjmp	.+1532   	; 0xdd8 <GET_GPRS_Signal+0x864>
     7dc:	80 91 8c 04 	lds	r24, 0x048C
     7e0:	81 11       	cpse	r24, r1
			_delay_us(10);
		if(GPRS_Receive_Flag&(0x1<<4))
     7e2:	fa c2       	rjmp	.+1524   	; 0xdd8 <GET_GPRS_Signal+0x864>
     7e4:	23 fd       	sbrc	r18, 3
		{
			return 0;
		}

		if(	LCD_Ico &(0x01 << 6) )
     7e6:	f8 c2       	rjmp	.+1520   	; 0xdd8 <GET_GPRS_Signal+0x864>
     7e8:	31 ff       	sbrs	r19, 1
     7ea:	09 c0       	rjmp	.+18     	; 0x7fe <GET_GPRS_Signal+0x28a>
     7ec:	4f ef       	ldi	r20, 0xFF	; 255
		{
			return 0 ;
		}
		if(SCQ != 0)
     7ee:	8f e3       	ldi	r24, 0x3F	; 63
     7f0:	95 e6       	ldi	r25, 0x65	; 101
     7f2:	41 50       	subi	r20, 0x01	; 1
     7f4:	80 40       	sbci	r24, 0x00	; 0
		{
			return 0;
		}
		if(GPRS_Receive_Flag&(0x1<<3))
     7f6:	90 40       	sbci	r25, 0x00	; 0
     7f8:	e1 f7       	brne	.-8      	; 0x7f2 <GET_GPRS_Signal+0x27e>
		{
			return 0 ;
		}
		if(GPRS_Receive_Flag&(0x01<<9))
     7fa:	00 c0       	rjmp	.+0      	; 0x7fc <GET_GPRS_Signal+0x288>
     7fc:	00 00       	nop
	#else
		//round up by default
		__ticks_dc = (uint32_t)(ceil(fabs(__tmp)));
	#endif

	__builtin_avr_delay_cycles(__ticks_dc);
     7fe:	80 91 a5 01 	lds	r24, 0x01A5
     802:	81 ff       	sbrs	r24, 1
     804:	09 c0       	rjmp	.+18     	; 0x818 <GET_GPRS_Signal+0x2a4>
     806:	ef ef       	ldi	r30, 0xFF	; 255
     808:	ff e1       	ldi	r31, 0x1F	; 31
     80a:	2a e0       	ldi	r18, 0x0A	; 10
     80c:	e1 50       	subi	r30, 0x01	; 1
     80e:	f0 40       	sbci	r31, 0x00	; 0
		{
			_delay_ms(3000);
		}
		if(GPRS_Receive_Flag&(0x01<<1))
     810:	20 40       	sbci	r18, 0x00	; 0
     812:	e1 f7       	brne	.-8      	; 0x80c <GET_GPRS_Signal+0x298>
     814:	00 c0       	rjmp	.+0      	; 0x816 <GET_GPRS_Signal+0x2a2>
     816:	00 00       	nop
     818:	11 50       	subi	r17, 0x01	; 1
     81a:	09 f4       	brne	.+2      	; 0x81e <GET_GPRS_Signal+0x2aa>
     81c:	04 c3       	rjmp	.+1544   	; 0xe26 <GET_GPRS_Signal+0x8b2>
     81e:	b1 cf       	rjmp	.-158    	; 0x782 <GET_GPRS_Signal+0x20e>
     820:	3f ef       	ldi	r19, 0xFF	; 255
     822:	4f e5       	ldi	r20, 0x5F	; 95
     824:	83 e0       	ldi	r24, 0x03	; 3
     826:	31 50       	subi	r19, 0x01	; 1
     828:	40 40       	sbci	r20, 0x00	; 0
     82a:	80 40       	sbci	r24, 0x00	; 0
}
inline unsigned char GPRS_Send_Cmd(unsigned char *cmd)
{
	unsigned char n = 2,i;
	unsigned int timeout;//超时操作
	while(n--)
     82c:	e1 f7       	brne	.-8      	; 0x826 <GET_GPRS_Signal+0x2b2>
     82e:	00 c0       	rjmp	.+0      	; 0x830 <GET_GPRS_Signal+0x2bc>
     830:	00 00       	nop
							_delay_ms(10);
							if(SCQ != 0)
							{			
								_delay_ms(100);
								unsigned char time_out = 0xF;
								while(!(LCD_Ico &(0x1<<7))&&time_out--)
     832:	68 94       	set
     834:	cc 24       	eor	r12, r12
     836:	c4 f8       	bld	r12, 4
     838:	0f 2e       	mov	r0, r31
     83a:	f3 e0       	ldi	r31, 0x03	; 3
     83c:	df 2e       	mov	r13, r31
     83e:	f0 2d       	mov	r31, r0
     840:	cd e1       	ldi	r28, 0x1D	; 29
     842:	d5 e0       	ldi	r29, 0x05	; 5
     844:	14 e6       	ldi	r17, 0x64	; 100
     846:	68 94       	set
     848:	ee 24       	eor	r14, r14
     84a:	e1 f8       	bld	r14, 1
     84c:	ff 24       	eor	r15, r15
     84e:	fa 94       	dec	r15
     850:	0f ef       	ldi	r16, 0xFF	; 255
     852:	7b c2       	rjmp	.+1270   	; 0xd4a <GET_GPRS_Signal+0x7d6>
		
				//LEDON;
				_delay_ms(500);
						
				//make_parameter(Parameter, status, tds1, tds2,sum_flow,Filte_CntV);
				unsigned int error = GET_CMD(Parameter);
     854:	9f ef       	ldi	r25, 0xFF	; 255
     856:	ef eb       	ldi	r30, 0xBF	; 191
     858:	f6 e0       	ldi	r31, 0x06	; 6
     85a:	91 50       	subi	r25, 0x01	; 1
				if (error != 0x00)
     85c:	e0 40       	sbci	r30, 0x00	; 0
     85e:	f0 40       	sbci	r31, 0x00	; 0
     860:	e1 f7       	brne	.-8      	; 0x85a <GET_GPRS_Signal+0x2e6>
				{
					LEDRUN;
     862:	00 c0       	rjmp	.+0      	; 0x864 <GET_GPRS_Signal+0x2f0>
     864:	00 00       	nop
     866:	be 2c       	mov	r11, r14
     868:	fe 01       	movw	r30, r28
     86a:	21 2f       	mov	r18, r17
     86c:	11 92       	st	Z+, r1
     86e:	2a 95       	dec	r18
     870:	e9 f7       	brne	.-6      	; 0x86c <GET_GPRS_Signal+0x2f8>
     872:	10 92 a6 01 	sts	0x01A6, r1
     876:	10 92 a5 01 	sts	0x01A5, r1
     87a:	81 e8       	ldi	r24, 0x81	; 129
     87c:	91 e0       	ldi	r25, 0x01	; 1
     87e:	0e 94 5b 15 	call	0x2ab6	; 0x2ab6 <USART1_Transmit_String>
     882:	20 91 a5 01 	lds	r18, 0x01A5
}


inline void GPRS_Prot_Init(void)
{
	DDRA |= (1<<PA3);
     886:	30 91 a6 01 	lds	r19, 0x01A6
     88a:	c9 01       	movw	r24, r18
     88c:	8a 75       	andi	r24, 0x5A	; 90
     88e:	99 27       	eor	r25, r25
     890:	89 2b       	or	r24, r25
     892:	89 f4       	brne	.+34     	; 0x8b6 <GET_GPRS_Signal+0x342>
     894:	8f 2d       	mov	r24, r15
     896:	90 2f       	mov	r25, r16
     898:	35 e2       	ldi	r19, 0x25	; 37
     89a:	3a 95       	dec	r19
     89c:	f1 f7       	brne	.-4      	; 0x89a <GET_GPRS_Signal+0x326>
			//PORTA |= 0x01<<PA2;
			BEEP(1);
			continue;	
		}
		timeout = 500;
		while(!(GPRS_Receive_Flag & 0x1<<6) && timeout --)
     89e:	20 91 a5 01 	lds	r18, 0x01A5
     8a2:	30 91 a6 01 	lds	r19, 0x01A6
     8a6:	a9 01       	movw	r20, r18
     8a8:	4a 75       	andi	r20, 0x5A	; 90
     8aa:	55 27       	eor	r21, r21
			_delay_ms(20);
		if(!(GPRS_Receive_Flag & 0x1<<5))
		{
			//DDRA |= 0x01<<PA2;
			//PORTA |= 0x01<<PA2;
			BEEP(1);
     8ac:	45 2b       	or	r20, r21
     8ae:	19 f4       	brne	.+6      	; 0x8b6 <GET_GPRS_Signal+0x342>
     8b0:	01 97       	sbiw	r24, 0x01	; 1
     8b2:	00 97       	sbiw	r24, 0x00	; 0
     8b4:	89 f7       	brne	.-30     	; 0x898 <GET_GPRS_Signal+0x324>
     8b6:	24 fd       	sbrc	r18, 4
     8b8:	26 c0       	rjmp	.+76     	; 0x906 <GET_GPRS_Signal+0x392>
     8ba:	80 91 8b 04 	lds	r24, 0x048B
     8be:	86 fd       	sbrc	r24, 6
     8c0:	22 c0       	rjmp	.+68     	; 0x906 <GET_GPRS_Signal+0x392>
     8c2:	80 91 8c 04 	lds	r24, 0x048C
     8c6:	81 11       	cpse	r24, r1
     8c8:	1e c0       	rjmp	.+60     	; 0x906 <GET_GPRS_Signal+0x392>
     8ca:	23 fd       	sbrc	r18, 3
     8cc:	1c c0       	rjmp	.+56     	; 0x906 <GET_GPRS_Signal+0x392>
     8ce:	31 ff       	sbrs	r19, 1
     8d0:	09 c0       	rjmp	.+18     	; 0x8e4 <GET_GPRS_Signal+0x370>
     8d2:	4f ef       	ldi	r20, 0xFF	; 255
     8d4:	8f e3       	ldi	r24, 0x3F	; 63
     8d6:	95 e6       	ldi	r25, 0x65	; 101
     8d8:	41 50       	subi	r20, 0x01	; 1
						_delay_ms(50);
						if((!GPRS_Send_Cmd(sendcsq)))
						{
							
							_delay_ms(10);
							if(SCQ != 0)
     8da:	80 40       	sbci	r24, 0x00	; 0
     8dc:	90 40       	sbci	r25, 0x00	; 0
     8de:	e1 f7       	brne	.-8      	; 0x8d8 <GET_GPRS_Signal+0x364>
     8e0:	00 c0       	rjmp	.+0      	; 0x8e2 <GET_GPRS_Signal+0x36e>
     8e2:	00 00       	nop
     8e4:	80 91 a5 01 	lds	r24, 0x01A5
{
	//GPRS_Mode_At();
	//GPRS_Send_Cmd(sendatmode);
	//_delay_ms(100);
	unsigned char timeout = TIME_OUT;
	while(GPRS_Send_Cmd(sendat)&&timeout--)
     8e8:	81 ff       	sbrs	r24, 1
     8ea:	09 c0       	rjmp	.+18     	; 0x8fe <GET_GPRS_Signal+0x38a>
     8ec:	ef ef       	ldi	r30, 0xFF	; 255
     8ee:	ff e1       	ldi	r31, 0x1F	; 31
	_delay_ms(COUNT_TIME);
	timeout = TIME_OUT;
	while(GPRS_Send_Cmd(sendhx)&&timeout--)
     8f0:	2a e0       	ldi	r18, 0x0A	; 10
     8f2:	e1 50       	subi	r30, 0x01	; 1
     8f4:	f0 40       	sbci	r31, 0x00	; 0
     8f6:	20 40       	sbci	r18, 0x00	; 0
	_delay_ms(COUNT_TIME);
	timeout = TIME_OUT;
	while(GPRS_Send_Cmd(sendsim)&&timeout--)
     8f8:	e1 f7       	brne	.-8      	; 0x8f2 <GET_GPRS_Signal+0x37e>
     8fa:	00 c0       	rjmp	.+0      	; 0x8fc <GET_GPRS_Signal+0x388>
     8fc:	00 00       	nop
     8fe:	ba 94       	dec	r11
	_delay_ms(COUNT_TIME);
	timeout = TIME_OUT;
	while(GPRS_Send_Cmd(sendcsq)&&timeout--)
     900:	09 f4       	brne	.+2      	; 0x904 <GET_GPRS_Signal+0x390>
     902:	75 c2       	rjmp	.+1258   	; 0xdee <GET_GPRS_Signal+0x87a>
     904:	b1 cf       	rjmp	.-158    	; 0x868 <GET_GPRS_Signal+0x2f4>
     906:	ad 2c       	mov	r10, r13
	_delay_ms(COUNT_TIME);
	timeout = TIME_OUT;
	while(GPRS_Send_Cmd(sendfu)&&timeout--)
     908:	09 c0       	rjmp	.+18     	; 0x91c <GET_GPRS_Signal+0x3a8>
     90a:	3f ef       	ldi	r19, 0xFF	; 255
     90c:	4f eb       	ldi	r20, 0xBF	; 191
     90e:	86 e0       	ldi	r24, 0x06	; 6
	_delay_ms(500);
	timeout = TIME_OUT;
	while(GPRS_Send_Cmd(sendpdp)&&timeout--)
     910:	31 50       	subi	r19, 0x01	; 1
     912:	40 40       	sbci	r20, 0x00	; 0
     914:	80 40       	sbci	r24, 0x00	; 0
     916:	e1 f7       	brne	.-8      	; 0x910 <GET_GPRS_Signal+0x39c>
	_delay_ms(200);
	timeout = TIME_OUT;	
	while(GPRS_Send_Cmd(sendjh)&&timeout--)	
     918:	00 c0       	rjmp	.+0      	; 0x91a <GET_GPRS_Signal+0x3a6>
     91a:	00 00       	nop
     91c:	be 2c       	mov	r11, r14
{
	unsigned char n = 2,i;
	unsigned int timeout;//超时操作
	while(n--)
	{
		memset(GPRS_Receive,0,100);
     91e:	fe 01       	movw	r30, r28
     920:	21 2f       	mov	r18, r17
     922:	11 92       	st	Z+, r1
     924:	2a 95       	dec	r18
     926:	e9 f7       	brne	.-6      	; 0x922 <GET_GPRS_Signal+0x3ae>
		timeout = 0xFFFF;
		GPRS_Receive_Flag = 0;
     928:	10 92 a6 01 	sts	0x01A6, r1
     92c:	10 92 a5 01 	sts	0x01A5, r1
		USART1_Transmit_String(cmd);
     930:	8a e7       	ldi	r24, 0x7A	; 122
     932:	91 e0       	ldi	r25, 0x01	; 1
     934:	0e 94 5b 15 	call	0x2ab6	; 0x2ab6 <USART1_Transmit_String>
		while((!(GPRS_Receive_Flag &((0x1<<4)|(0x1<<1)|(0x1<<3)|((0x1<<6)))))&& (timeout --))
     938:	20 91 a5 01 	lds	r18, 0x01A5
     93c:	30 91 a6 01 	lds	r19, 0x01A6
     940:	c9 01       	movw	r24, r18
     942:	8a 75       	andi	r24, 0x5A	; 90
     944:	99 27       	eor	r25, r25
     946:	89 2b       	or	r24, r25
     948:	89 f4       	brne	.+34     	; 0x96c <GET_GPRS_Signal+0x3f8>
     94a:	8f 2d       	mov	r24, r15
     94c:	90 2f       	mov	r25, r16
	#else
		//round up by default
		__ticks_dc = (uint32_t)(ceil(fabs(__tmp)));
	#endif

	__builtin_avr_delay_cycles(__ticks_dc);
     94e:	35 e2       	ldi	r19, 0x25	; 37
     950:	3a 95       	dec	r19
     952:	f1 f7       	brne	.-4      	; 0x950 <GET_GPRS_Signal+0x3dc>
     954:	20 91 a5 01 	lds	r18, 0x01A5
     958:	30 91 a6 01 	lds	r19, 0x01A6
     95c:	a9 01       	movw	r20, r18
     95e:	4a 75       	andi	r20, 0x5A	; 90
     960:	55 27       	eor	r21, r21
     962:	45 2b       	or	r20, r21
     964:	19 f4       	brne	.+6      	; 0x96c <GET_GPRS_Signal+0x3f8>
     966:	01 97       	sbiw	r24, 0x01	; 1
     968:	00 97       	sbiw	r24, 0x00	; 0
     96a:	89 f7       	brne	.-30     	; 0x94e <GET_GPRS_Signal+0x3da>
			_delay_us(10);
		if(GPRS_Receive_Flag&(0x1<<4))
     96c:	24 fd       	sbrc	r18, 4
     96e:	26 c0       	rjmp	.+76     	; 0x9bc <GET_GPRS_Signal+0x448>
		{
			return 0;
		}

		if(	LCD_Ico &(0x01 << 6) )
     970:	80 91 8b 04 	lds	r24, 0x048B
     974:	86 fd       	sbrc	r24, 6
     976:	22 c0       	rjmp	.+68     	; 0x9bc <GET_GPRS_Signal+0x448>
		{
			return 0 ;
		}
		if(SCQ != 0)
     978:	80 91 8c 04 	lds	r24, 0x048C
     97c:	81 11       	cpse	r24, r1
     97e:	1e c0       	rjmp	.+60     	; 0x9bc <GET_GPRS_Signal+0x448>
		{
			return 0;
		}
		if(GPRS_Receive_Flag&(0x1<<3))
     980:	23 fd       	sbrc	r18, 3
     982:	1c c0       	rjmp	.+56     	; 0x9bc <GET_GPRS_Signal+0x448>
		{
			return 0 ;
		}
		if(GPRS_Receive_Flag&(0x01<<9))
     984:	31 ff       	sbrs	r19, 1
     986:	09 c0       	rjmp	.+18     	; 0x99a <GET_GPRS_Signal+0x426>
	#else
		//round up by default
		__ticks_dc = (uint32_t)(ceil(fabs(__tmp)));
	#endif

	__builtin_avr_delay_cycles(__ticks_dc);
     988:	4f ef       	ldi	r20, 0xFF	; 255
     98a:	8f e3       	ldi	r24, 0x3F	; 63
     98c:	95 e6       	ldi	r25, 0x65	; 101
     98e:	41 50       	subi	r20, 0x01	; 1
     990:	80 40       	sbci	r24, 0x00	; 0
     992:	90 40       	sbci	r25, 0x00	; 0
     994:	e1 f7       	brne	.-8      	; 0x98e <GET_GPRS_Signal+0x41a>
     996:	00 c0       	rjmp	.+0      	; 0x998 <GET_GPRS_Signal+0x424>
     998:	00 00       	nop
		{
			_delay_ms(3000);
		}
		if(GPRS_Receive_Flag&(0x01<<1))
     99a:	80 91 a5 01 	lds	r24, 0x01A5
     99e:	81 ff       	sbrs	r24, 1
     9a0:	09 c0       	rjmp	.+18     	; 0x9b4 <GET_GPRS_Signal+0x440>
     9a2:	ef ef       	ldi	r30, 0xFF	; 255
     9a4:	ff e1       	ldi	r31, 0x1F	; 31
     9a6:	2a e0       	ldi	r18, 0x0A	; 10
     9a8:	e1 50       	subi	r30, 0x01	; 1
     9aa:	f0 40       	sbci	r31, 0x00	; 0
     9ac:	20 40       	sbci	r18, 0x00	; 0
     9ae:	e1 f7       	brne	.-8      	; 0x9a8 <GET_GPRS_Signal+0x434>
     9b0:	00 c0       	rjmp	.+0      	; 0x9b2 <GET_GPRS_Signal+0x43e>
     9b2:	00 00       	nop
     9b4:	ba 94       	dec	r11
}
inline unsigned char GPRS_Send_Cmd(unsigned char *cmd)
{
	unsigned char n = 2,i;
	unsigned int timeout;//超时操作
	while(n--)
     9b6:	09 f4       	brne	.+2      	; 0x9ba <GET_GPRS_Signal+0x446>
     9b8:	1e c2       	rjmp	.+1084   	; 0xdf6 <GET_GPRS_Signal+0x882>
     9ba:	b1 cf       	rjmp	.-158    	; 0x91e <GET_GPRS_Signal+0x3aa>
	{
		memset(GPRS_Receive,0,100);
		timeout = 0xFFFF;
		GPRS_Receive_Flag = 0;
		USART1_Transmit_String(cmd);
		while((!(GPRS_Receive_Flag &((0x1<<4)|(0x1<<1)|(0x1<<3)|((0x1<<6)))))&& (timeout --))
     9bc:	ad 2c       	mov	r10, r13
     9be:	09 c0       	rjmp	.+18     	; 0x9d2 <GET_GPRS_Signal+0x45e>
     9c0:	3f ef       	ldi	r19, 0xFF	; 255
     9c2:	4f eb       	ldi	r20, 0xBF	; 191
     9c4:	86 e0       	ldi	r24, 0x06	; 6
     9c6:	31 50       	subi	r19, 0x01	; 1
     9c8:	40 40       	sbci	r20, 0x00	; 0
     9ca:	80 40       	sbci	r24, 0x00	; 0
     9cc:	e1 f7       	brne	.-8      	; 0x9c6 <GET_GPRS_Signal+0x452>
     9ce:	00 c0       	rjmp	.+0      	; 0x9d0 <GET_GPRS_Signal+0x45c>
     9d0:	00 00       	nop
     9d2:	be 2c       	mov	r11, r14
{
	unsigned char n = 2,i;
	unsigned int timeout;//超时操作
	while(n--)
	{
		memset(GPRS_Receive,0,100);
     9d4:	fe 01       	movw	r30, r28
     9d6:	21 2f       	mov	r18, r17
     9d8:	11 92       	st	Z+, r1
     9da:	2a 95       	dec	r18
     9dc:	e9 f7       	brne	.-6      	; 0x9d8 <GET_GPRS_Signal+0x464>
		timeout = 0xFFFF;
		GPRS_Receive_Flag = 0;
     9de:	10 92 a6 01 	sts	0x01A6, r1
     9e2:	10 92 a5 01 	sts	0x01A5, r1
		USART1_Transmit_String(cmd);
     9e6:	80 e7       	ldi	r24, 0x70	; 112
     9e8:	91 e0       	ldi	r25, 0x01	; 1
     9ea:	0e 94 5b 15 	call	0x2ab6	; 0x2ab6 <USART1_Transmit_String>
		while((!(GPRS_Receive_Flag &((0x1<<4)|(0x1<<1)|(0x1<<3)|((0x1<<6)))))&& (timeout --))
     9ee:	20 91 a5 01 	lds	r18, 0x01A5
     9f2:	30 91 a6 01 	lds	r19, 0x01A6
     9f6:	c9 01       	movw	r24, r18
     9f8:	8a 75       	andi	r24, 0x5A	; 90
     9fa:	99 27       	eor	r25, r25
     9fc:	89 2b       	or	r24, r25
     9fe:	89 f4       	brne	.+34     	; 0xa22 <GET_GPRS_Signal+0x4ae>
     a00:	8f 2d       	mov	r24, r15
     a02:	90 2f       	mov	r25, r16
	#else
		//round up by default
		__ticks_dc = (uint32_t)(ceil(fabs(__tmp)));
	#endif

	__builtin_avr_delay_cycles(__ticks_dc);
     a04:	35 e2       	ldi	r19, 0x25	; 37
     a06:	3a 95       	dec	r19
     a08:	f1 f7       	brne	.-4      	; 0xa06 <GET_GPRS_Signal+0x492>
     a0a:	20 91 a5 01 	lds	r18, 0x01A5
     a0e:	30 91 a6 01 	lds	r19, 0x01A6
     a12:	a9 01       	movw	r20, r18
     a14:	4a 75       	andi	r20, 0x5A	; 90
     a16:	55 27       	eor	r21, r21
     a18:	45 2b       	or	r20, r21
     a1a:	19 f4       	brne	.+6      	; 0xa22 <GET_GPRS_Signal+0x4ae>
     a1c:	01 97       	sbiw	r24, 0x01	; 1
     a1e:	00 97       	sbiw	r24, 0x00	; 0
     a20:	89 f7       	brne	.-30     	; 0xa04 <GET_GPRS_Signal+0x490>
			_delay_us(10);
		if(GPRS_Receive_Flag&(0x1<<4))
     a22:	24 fd       	sbrc	r18, 4
     a24:	26 c0       	rjmp	.+76     	; 0xa72 <GET_GPRS_Signal+0x4fe>
		{
			return 0;
		}

		if(	LCD_Ico &(0x01 << 6) )
     a26:	80 91 8b 04 	lds	r24, 0x048B
     a2a:	86 fd       	sbrc	r24, 6
     a2c:	22 c0       	rjmp	.+68     	; 0xa72 <GET_GPRS_Signal+0x4fe>
		{
			return 0 ;
		}
		if(SCQ != 0)
     a2e:	80 91 8c 04 	lds	r24, 0x048C
     a32:	81 11       	cpse	r24, r1
     a34:	1e c0       	rjmp	.+60     	; 0xa72 <GET_GPRS_Signal+0x4fe>
		{
			return 0;
		}
		if(GPRS_Receive_Flag&(0x1<<3))
     a36:	23 fd       	sbrc	r18, 3
     a38:	1c c0       	rjmp	.+56     	; 0xa72 <GET_GPRS_Signal+0x4fe>
		{
			return 0 ;
		}
		if(GPRS_Receive_Flag&(0x01<<9))
     a3a:	31 ff       	sbrs	r19, 1
     a3c:	09 c0       	rjmp	.+18     	; 0xa50 <GET_GPRS_Signal+0x4dc>
	#else
		//round up by default
		__ticks_dc = (uint32_t)(ceil(fabs(__tmp)));
	#endif

	__builtin_avr_delay_cycles(__ticks_dc);
     a3e:	4f ef       	ldi	r20, 0xFF	; 255
     a40:	8f e3       	ldi	r24, 0x3F	; 63
     a42:	95 e6       	ldi	r25, 0x65	; 101
     a44:	41 50       	subi	r20, 0x01	; 1
     a46:	80 40       	sbci	r24, 0x00	; 0
     a48:	90 40       	sbci	r25, 0x00	; 0
     a4a:	e1 f7       	brne	.-8      	; 0xa44 <GET_GPRS_Signal+0x4d0>
     a4c:	00 c0       	rjmp	.+0      	; 0xa4e <GET_GPRS_Signal+0x4da>
     a4e:	00 00       	nop
		{
			_delay_ms(3000);
		}
		if(GPRS_Receive_Flag&(0x01<<1))
     a50:	80 91 a5 01 	lds	r24, 0x01A5
     a54:	81 ff       	sbrs	r24, 1
     a56:	09 c0       	rjmp	.+18     	; 0xa6a <GET_GPRS_Signal+0x4f6>
     a58:	ef ef       	ldi	r30, 0xFF	; 255
     a5a:	ff e1       	ldi	r31, 0x1F	; 31
     a5c:	2a e0       	ldi	r18, 0x0A	; 10
     a5e:	e1 50       	subi	r30, 0x01	; 1
     a60:	f0 40       	sbci	r31, 0x00	; 0
     a62:	20 40       	sbci	r18, 0x00	; 0
     a64:	e1 f7       	brne	.-8      	; 0xa5e <GET_GPRS_Signal+0x4ea>
     a66:	00 c0       	rjmp	.+0      	; 0xa68 <GET_GPRS_Signal+0x4f4>
     a68:	00 00       	nop
     a6a:	ba 94       	dec	r11
}
inline unsigned char GPRS_Send_Cmd(unsigned char *cmd)
{
	unsigned char n = 2,i;
	unsigned int timeout;//超时操作
	while(n--)
     a6c:	09 f4       	brne	.+2      	; 0xa70 <GET_GPRS_Signal+0x4fc>
     a6e:	c7 c1       	rjmp	.+910    	; 0xdfe <GET_GPRS_Signal+0x88a>
     a70:	b1 cf       	rjmp	.-158    	; 0x9d4 <GET_GPRS_Signal+0x460>
	{
		memset(GPRS_Receive,0,100);
		timeout = 0xFFFF;
		GPRS_Receive_Flag = 0;
		USART1_Transmit_String(cmd);
		while((!(GPRS_Receive_Flag &((0x1<<4)|(0x1<<1)|(0x1<<3)|((0x1<<6)))))&& (timeout --))
     a72:	ad 2c       	mov	r10, r13
     a74:	09 c0       	rjmp	.+18     	; 0xa88 <GET_GPRS_Signal+0x514>
     a76:	3f ef       	ldi	r19, 0xFF	; 255
     a78:	4f eb       	ldi	r20, 0xBF	; 191
     a7a:	86 e0       	ldi	r24, 0x06	; 6
     a7c:	31 50       	subi	r19, 0x01	; 1
     a7e:	40 40       	sbci	r20, 0x00	; 0
     a80:	80 40       	sbci	r24, 0x00	; 0
     a82:	e1 f7       	brne	.-8      	; 0xa7c <GET_GPRS_Signal+0x508>
     a84:	00 c0       	rjmp	.+0      	; 0xa86 <GET_GPRS_Signal+0x512>
     a86:	00 00       	nop
     a88:	be 2c       	mov	r11, r14
{
	unsigned char n = 2,i;
	unsigned int timeout;//超时操作
	while(n--)
	{
		memset(GPRS_Receive,0,100);
     a8a:	fe 01       	movw	r30, r28
     a8c:	21 2f       	mov	r18, r17
     a8e:	11 92       	st	Z+, r1
     a90:	2a 95       	dec	r18
     a92:	e9 f7       	brne	.-6      	; 0xa8e <GET_GPRS_Signal+0x51a>
		timeout = 0xFFFF;
		GPRS_Receive_Flag = 0;
     a94:	10 92 a6 01 	sts	0x01A6, r1
     a98:	10 92 a5 01 	sts	0x01A5, r1
		USART1_Transmit_String(cmd);
     a9c:	87 e6       	ldi	r24, 0x67	; 103
     a9e:	91 e0       	ldi	r25, 0x01	; 1
     aa0:	0e 94 5b 15 	call	0x2ab6	; 0x2ab6 <USART1_Transmit_String>
		while((!(GPRS_Receive_Flag &((0x1<<4)|(0x1<<1)|(0x1<<3)|((0x1<<6)))))&& (timeout --))
     aa4:	20 91 a5 01 	lds	r18, 0x01A5
     aa8:	30 91 a6 01 	lds	r19, 0x01A6
     aac:	c9 01       	movw	r24, r18
     aae:	8a 75       	andi	r24, 0x5A	; 90
     ab0:	99 27       	eor	r25, r25
     ab2:	89 2b       	or	r24, r25
     ab4:	89 f4       	brne	.+34     	; 0xad8 <GET_GPRS_Signal+0x564>
     ab6:	8f 2d       	mov	r24, r15
     ab8:	90 2f       	mov	r25, r16
	#else
		//round up by default
		__ticks_dc = (uint32_t)(ceil(fabs(__tmp)));
	#endif

	__builtin_avr_delay_cycles(__ticks_dc);
     aba:	35 e2       	ldi	r19, 0x25	; 37
     abc:	3a 95       	dec	r19
     abe:	f1 f7       	brne	.-4      	; 0xabc <GET_GPRS_Signal+0x548>
     ac0:	20 91 a5 01 	lds	r18, 0x01A5
     ac4:	30 91 a6 01 	lds	r19, 0x01A6
     ac8:	a9 01       	movw	r20, r18
     aca:	4a 75       	andi	r20, 0x5A	; 90
     acc:	55 27       	eor	r21, r21
     ace:	45 2b       	or	r20, r21
     ad0:	19 f4       	brne	.+6      	; 0xad8 <GET_GPRS_Signal+0x564>
     ad2:	01 97       	sbiw	r24, 0x01	; 1
     ad4:	00 97       	sbiw	r24, 0x00	; 0
     ad6:	89 f7       	brne	.-30     	; 0xaba <GET_GPRS_Signal+0x546>
			_delay_us(10);
		if(GPRS_Receive_Flag&(0x1<<4))
     ad8:	24 fd       	sbrc	r18, 4
     ada:	26 c0       	rjmp	.+76     	; 0xb28 <GET_GPRS_Signal+0x5b4>
		{
			return 0;
		}

		if(	LCD_Ico &(0x01 << 6) )
     adc:	80 91 8b 04 	lds	r24, 0x048B
     ae0:	86 fd       	sbrc	r24, 6
     ae2:	22 c0       	rjmp	.+68     	; 0xb28 <GET_GPRS_Signal+0x5b4>
		{
			return 0 ;
		}
		if(SCQ != 0)
     ae4:	80 91 8c 04 	lds	r24, 0x048C
     ae8:	81 11       	cpse	r24, r1
     aea:	1e c0       	rjmp	.+60     	; 0xb28 <GET_GPRS_Signal+0x5b4>
		{
			return 0;
		}
		if(GPRS_Receive_Flag&(0x1<<3))
     aec:	23 fd       	sbrc	r18, 3
     aee:	1c c0       	rjmp	.+56     	; 0xb28 <GET_GPRS_Signal+0x5b4>
		{
			return 0 ;
		}
		if(GPRS_Receive_Flag&(0x01<<9))
     af0:	31 ff       	sbrs	r19, 1
     af2:	09 c0       	rjmp	.+18     	; 0xb06 <GET_GPRS_Signal+0x592>
	#else
		//round up by default
		__ticks_dc = (uint32_t)(ceil(fabs(__tmp)));
	#endif

	__builtin_avr_delay_cycles(__ticks_dc);
     af4:	4f ef       	ldi	r20, 0xFF	; 255
     af6:	8f e3       	ldi	r24, 0x3F	; 63
     af8:	95 e6       	ldi	r25, 0x65	; 101
     afa:	41 50       	subi	r20, 0x01	; 1
     afc:	80 40       	sbci	r24, 0x00	; 0
     afe:	90 40       	sbci	r25, 0x00	; 0
     b00:	e1 f7       	brne	.-8      	; 0xafa <GET_GPRS_Signal+0x586>
     b02:	00 c0       	rjmp	.+0      	; 0xb04 <GET_GPRS_Signal+0x590>
     b04:	00 00       	nop
		{
			_delay_ms(3000);
		}
		if(GPRS_Receive_Flag&(0x01<<1))
     b06:	80 91 a5 01 	lds	r24, 0x01A5
     b0a:	81 ff       	sbrs	r24, 1
     b0c:	09 c0       	rjmp	.+18     	; 0xb20 <GET_GPRS_Signal+0x5ac>
     b0e:	ef ef       	ldi	r30, 0xFF	; 255
     b10:	ff e1       	ldi	r31, 0x1F	; 31
     b12:	2a e0       	ldi	r18, 0x0A	; 10
     b14:	e1 50       	subi	r30, 0x01	; 1
     b16:	f0 40       	sbci	r31, 0x00	; 0
     b18:	20 40       	sbci	r18, 0x00	; 0
     b1a:	e1 f7       	brne	.-8      	; 0xb14 <GET_GPRS_Signal+0x5a0>
     b1c:	00 c0       	rjmp	.+0      	; 0xb1e <GET_GPRS_Signal+0x5aa>
     b1e:	00 00       	nop
     b20:	ba 94       	dec	r11
}
inline unsigned char GPRS_Send_Cmd(unsigned char *cmd)
{
	unsigned char n = 2,i;
	unsigned int timeout;//超时操作
	while(n--)
     b22:	09 f4       	brne	.+2      	; 0xb26 <GET_GPRS_Signal+0x5b2>
     b24:	70 c1       	rjmp	.+736    	; 0xe06 <GET_GPRS_Signal+0x892>
     b26:	b1 cf       	rjmp	.-158    	; 0xa8a <GET_GPRS_Signal+0x516>
	{
		memset(GPRS_Receive,0,100);
		timeout = 0xFFFF;
		GPRS_Receive_Flag = 0;
		USART1_Transmit_String(cmd);
		while((!(GPRS_Receive_Flag &((0x1<<4)|(0x1<<1)|(0x1<<3)|((0x1<<6)))))&& (timeout --))
     b28:	ad 2c       	mov	r10, r13
     b2a:	09 c0       	rjmp	.+18     	; 0xb3e <GET_GPRS_Signal+0x5ca>
     b2c:	3f ef       	ldi	r19, 0xFF	; 255
     b2e:	4f ed       	ldi	r20, 0xDF	; 223
     b30:	80 e1       	ldi	r24, 0x10	; 16
     b32:	31 50       	subi	r19, 0x01	; 1
     b34:	40 40       	sbci	r20, 0x00	; 0
     b36:	80 40       	sbci	r24, 0x00	; 0
     b38:	e1 f7       	brne	.-8      	; 0xb32 <GET_GPRS_Signal+0x5be>
     b3a:	00 c0       	rjmp	.+0      	; 0xb3c <GET_GPRS_Signal+0x5c8>
     b3c:	00 00       	nop
     b3e:	be 2c       	mov	r11, r14
{
	unsigned char n = 2,i;
	unsigned int timeout;//超时操作
	while(n--)
	{
		memset(GPRS_Receive,0,100);
     b40:	fe 01       	movw	r30, r28
     b42:	21 2f       	mov	r18, r17
     b44:	11 92       	st	Z+, r1
     b46:	2a 95       	dec	r18
     b48:	e9 f7       	brne	.-6      	; 0xb44 <GET_GPRS_Signal+0x5d0>
		timeout = 0xFFFF;
		GPRS_Receive_Flag = 0;
     b4a:	10 92 a6 01 	sts	0x01A6, r1
     b4e:	10 92 a5 01 	sts	0x01A5, r1
		USART1_Transmit_String(cmd);
     b52:	8a e5       	ldi	r24, 0x5A	; 90
     b54:	91 e0       	ldi	r25, 0x01	; 1
     b56:	0e 94 5b 15 	call	0x2ab6	; 0x2ab6 <USART1_Transmit_String>
		while((!(GPRS_Receive_Flag &((0x1<<4)|(0x1<<1)|(0x1<<3)|((0x1<<6)))))&& (timeout --))
     b5a:	20 91 a5 01 	lds	r18, 0x01A5
     b5e:	30 91 a6 01 	lds	r19, 0x01A6
     b62:	c9 01       	movw	r24, r18
     b64:	8a 75       	andi	r24, 0x5A	; 90
     b66:	99 27       	eor	r25, r25
     b68:	89 2b       	or	r24, r25
     b6a:	89 f4       	brne	.+34     	; 0xb8e <GET_GPRS_Signal+0x61a>
     b6c:	8f 2d       	mov	r24, r15
     b6e:	90 2f       	mov	r25, r16
	#else
		//round up by default
		__ticks_dc = (uint32_t)(ceil(fabs(__tmp)));
	#endif

	__builtin_avr_delay_cycles(__ticks_dc);
     b70:	35 e2       	ldi	r19, 0x25	; 37
     b72:	3a 95       	dec	r19
     b74:	f1 f7       	brne	.-4      	; 0xb72 <GET_GPRS_Signal+0x5fe>
     b76:	20 91 a5 01 	lds	r18, 0x01A5
     b7a:	30 91 a6 01 	lds	r19, 0x01A6
     b7e:	a9 01       	movw	r20, r18
     b80:	4a 75       	andi	r20, 0x5A	; 90
     b82:	55 27       	eor	r21, r21
     b84:	45 2b       	or	r20, r21
     b86:	19 f4       	brne	.+6      	; 0xb8e <GET_GPRS_Signal+0x61a>
     b88:	01 97       	sbiw	r24, 0x01	; 1
     b8a:	00 97       	sbiw	r24, 0x00	; 0
     b8c:	89 f7       	brne	.-30     	; 0xb70 <GET_GPRS_Signal+0x5fc>
			_delay_us(10);
		if(GPRS_Receive_Flag&(0x1<<4))
     b8e:	24 fd       	sbrc	r18, 4
     b90:	26 c0       	rjmp	.+76     	; 0xbde <GET_GPRS_Signal+0x66a>
		{
			return 0;
		}

		if(	LCD_Ico &(0x01 << 6) )
     b92:	80 91 8b 04 	lds	r24, 0x048B
     b96:	86 fd       	sbrc	r24, 6
     b98:	22 c0       	rjmp	.+68     	; 0xbde <GET_GPRS_Signal+0x66a>
		{
			return 0 ;
		}
		if(SCQ != 0)
     b9a:	80 91 8c 04 	lds	r24, 0x048C
     b9e:	81 11       	cpse	r24, r1
     ba0:	1e c0       	rjmp	.+60     	; 0xbde <GET_GPRS_Signal+0x66a>
		{
			return 0;
		}
		if(GPRS_Receive_Flag&(0x1<<3))
     ba2:	23 fd       	sbrc	r18, 3
     ba4:	1c c0       	rjmp	.+56     	; 0xbde <GET_GPRS_Signal+0x66a>
		{
			return 0 ;
		}
		if(GPRS_Receive_Flag&(0x01<<9))
     ba6:	31 ff       	sbrs	r19, 1
     ba8:	09 c0       	rjmp	.+18     	; 0xbbc <GET_GPRS_Signal+0x648>
	#else
		//round up by default
		__ticks_dc = (uint32_t)(ceil(fabs(__tmp)));
	#endif

	__builtin_avr_delay_cycles(__ticks_dc);
     baa:	4f ef       	ldi	r20, 0xFF	; 255
     bac:	8f e3       	ldi	r24, 0x3F	; 63
     bae:	95 e6       	ldi	r25, 0x65	; 101
     bb0:	41 50       	subi	r20, 0x01	; 1
     bb2:	80 40       	sbci	r24, 0x00	; 0
     bb4:	90 40       	sbci	r25, 0x00	; 0
     bb6:	e1 f7       	brne	.-8      	; 0xbb0 <GET_GPRS_Signal+0x63c>
     bb8:	00 c0       	rjmp	.+0      	; 0xbba <GET_GPRS_Signal+0x646>
     bba:	00 00       	nop
		{
			_delay_ms(3000);
		}
		if(GPRS_Receive_Flag&(0x01<<1))
     bbc:	80 91 a5 01 	lds	r24, 0x01A5
     bc0:	81 ff       	sbrs	r24, 1
     bc2:	09 c0       	rjmp	.+18     	; 0xbd6 <GET_GPRS_Signal+0x662>
     bc4:	ef ef       	ldi	r30, 0xFF	; 255
     bc6:	ff e1       	ldi	r31, 0x1F	; 31
     bc8:	2a e0       	ldi	r18, 0x0A	; 10
     bca:	e1 50       	subi	r30, 0x01	; 1
     bcc:	f0 40       	sbci	r31, 0x00	; 0
     bce:	20 40       	sbci	r18, 0x00	; 0
     bd0:	e1 f7       	brne	.-8      	; 0xbca <GET_GPRS_Signal+0x656>
     bd2:	00 c0       	rjmp	.+0      	; 0xbd4 <GET_GPRS_Signal+0x660>
     bd4:	00 00       	nop
     bd6:	ba 94       	dec	r11
}
inline unsigned char GPRS_Send_Cmd(unsigned char *cmd)
{
	unsigned char n = 2,i;
	unsigned int timeout;//超时操作
	while(n--)
     bd8:	09 f4       	brne	.+2      	; 0xbdc <GET_GPRS_Signal+0x668>
     bda:	19 c1       	rjmp	.+562    	; 0xe0e <GET_GPRS_Signal+0x89a>
     bdc:	b1 cf       	rjmp	.-158    	; 0xb40 <GET_GPRS_Signal+0x5cc>
	{
		memset(GPRS_Receive,0,100);
		timeout = 0xFFFF;
		GPRS_Receive_Flag = 0;
		USART1_Transmit_String(cmd);
		while((!(GPRS_Receive_Flag &((0x1<<4)|(0x1<<1)|(0x1<<3)|((0x1<<6)))))&& (timeout --))
     bde:	ad 2c       	mov	r10, r13
     be0:	09 c0       	rjmp	.+18     	; 0xbf4 <GET_GPRS_Signal+0x680>
     be2:	3f ef       	ldi	r19, 0xFF	; 255
     be4:	4f eb       	ldi	r20, 0xBF	; 191
     be6:	86 e0       	ldi	r24, 0x06	; 6
     be8:	31 50       	subi	r19, 0x01	; 1
     bea:	40 40       	sbci	r20, 0x00	; 0
     bec:	80 40       	sbci	r24, 0x00	; 0
     bee:	e1 f7       	brne	.-8      	; 0xbe8 <GET_GPRS_Signal+0x674>
     bf0:	00 c0       	rjmp	.+0      	; 0xbf2 <GET_GPRS_Signal+0x67e>
     bf2:	00 00       	nop
     bf4:	be 2c       	mov	r11, r14
{
	unsigned char n = 2,i;
	unsigned int timeout;//超时操作
	while(n--)
	{
		memset(GPRS_Receive,0,100);
     bf6:	fe 01       	movw	r30, r28
     bf8:	21 2f       	mov	r18, r17
     bfa:	11 92       	st	Z+, r1
     bfc:	2a 95       	dec	r18
     bfe:	e9 f7       	brne	.-6      	; 0xbfa <GET_GPRS_Signal+0x686>
		timeout = 0xFFFF;
		GPRS_Receive_Flag = 0;
     c00:	10 92 a6 01 	sts	0x01A6, r1
     c04:	10 92 a5 01 	sts	0x01A5, r1
		USART1_Transmit_String(cmd);
     c08:	82 e4       	ldi	r24, 0x42	; 66
     c0a:	91 e0       	ldi	r25, 0x01	; 1
     c0c:	0e 94 5b 15 	call	0x2ab6	; 0x2ab6 <USART1_Transmit_String>
		while((!(GPRS_Receive_Flag &((0x1<<4)|(0x1<<1)|(0x1<<3)|((0x1<<6)))))&& (timeout --))
     c10:	20 91 a5 01 	lds	r18, 0x01A5
     c14:	30 91 a6 01 	lds	r19, 0x01A6
     c18:	c9 01       	movw	r24, r18
     c1a:	8a 75       	andi	r24, 0x5A	; 90
     c1c:	99 27       	eor	r25, r25
     c1e:	89 2b       	or	r24, r25
     c20:	89 f4       	brne	.+34     	; 0xc44 <GET_GPRS_Signal+0x6d0>
     c22:	8f 2d       	mov	r24, r15
     c24:	90 2f       	mov	r25, r16
	#else
		//round up by default
		__ticks_dc = (uint32_t)(ceil(fabs(__tmp)));
	#endif

	__builtin_avr_delay_cycles(__ticks_dc);
     c26:	35 e2       	ldi	r19, 0x25	; 37
     c28:	3a 95       	dec	r19
     c2a:	f1 f7       	brne	.-4      	; 0xc28 <GET_GPRS_Signal+0x6b4>
     c2c:	20 91 a5 01 	lds	r18, 0x01A5
     c30:	30 91 a6 01 	lds	r19, 0x01A6
     c34:	a9 01       	movw	r20, r18
     c36:	4a 75       	andi	r20, 0x5A	; 90
     c38:	55 27       	eor	r21, r21
     c3a:	45 2b       	or	r20, r21
     c3c:	19 f4       	brne	.+6      	; 0xc44 <GET_GPRS_Signal+0x6d0>
     c3e:	01 97       	sbiw	r24, 0x01	; 1
     c40:	00 97       	sbiw	r24, 0x00	; 0
     c42:	89 f7       	brne	.-30     	; 0xc26 <GET_GPRS_Signal+0x6b2>
			_delay_us(10);
		if(GPRS_Receive_Flag&(0x1<<4))
     c44:	24 fd       	sbrc	r18, 4
     c46:	26 c0       	rjmp	.+76     	; 0xc94 <GET_GPRS_Signal+0x720>
		{
			return 0;
		}

		if(	LCD_Ico &(0x01 << 6) )
     c48:	80 91 8b 04 	lds	r24, 0x048B
     c4c:	86 fd       	sbrc	r24, 6
     c4e:	22 c0       	rjmp	.+68     	; 0xc94 <GET_GPRS_Signal+0x720>
		{
			return 0 ;
		}
		if(SCQ != 0)
     c50:	80 91 8c 04 	lds	r24, 0x048C
     c54:	81 11       	cpse	r24, r1
     c56:	1e c0       	rjmp	.+60     	; 0xc94 <GET_GPRS_Signal+0x720>
		{
			return 0;
		}
		if(GPRS_Receive_Flag&(0x1<<3))
     c58:	23 fd       	sbrc	r18, 3
     c5a:	1c c0       	rjmp	.+56     	; 0xc94 <GET_GPRS_Signal+0x720>
		{
			return 0 ;
		}
		if(GPRS_Receive_Flag&(0x01<<9))
     c5c:	31 ff       	sbrs	r19, 1
     c5e:	09 c0       	rjmp	.+18     	; 0xc72 <GET_GPRS_Signal+0x6fe>
	#else
		//round up by default
		__ticks_dc = (uint32_t)(ceil(fabs(__tmp)));
	#endif

	__builtin_avr_delay_cycles(__ticks_dc);
     c60:	4f ef       	ldi	r20, 0xFF	; 255
     c62:	8f e3       	ldi	r24, 0x3F	; 63
     c64:	95 e6       	ldi	r25, 0x65	; 101
     c66:	41 50       	subi	r20, 0x01	; 1
     c68:	80 40       	sbci	r24, 0x00	; 0
     c6a:	90 40       	sbci	r25, 0x00	; 0
     c6c:	e1 f7       	brne	.-8      	; 0xc66 <GET_GPRS_Signal+0x6f2>
     c6e:	00 c0       	rjmp	.+0      	; 0xc70 <GET_GPRS_Signal+0x6fc>
     c70:	00 00       	nop
		{
			_delay_ms(3000);
		}
		if(GPRS_Receive_Flag&(0x01<<1))
     c72:	80 91 a5 01 	lds	r24, 0x01A5
     c76:	81 ff       	sbrs	r24, 1
     c78:	09 c0       	rjmp	.+18     	; 0xc8c <GET_GPRS_Signal+0x718>
     c7a:	ef ef       	ldi	r30, 0xFF	; 255
     c7c:	ff e1       	ldi	r31, 0x1F	; 31
     c7e:	2a e0       	ldi	r18, 0x0A	; 10
     c80:	e1 50       	subi	r30, 0x01	; 1
     c82:	f0 40       	sbci	r31, 0x00	; 0
     c84:	20 40       	sbci	r18, 0x00	; 0
     c86:	e1 f7       	brne	.-8      	; 0xc80 <GET_GPRS_Signal+0x70c>
     c88:	00 c0       	rjmp	.+0      	; 0xc8a <GET_GPRS_Signal+0x716>
     c8a:	00 00       	nop
     c8c:	ba 94       	dec	r11
}
inline unsigned char GPRS_Send_Cmd(unsigned char *cmd)
{
	unsigned char n = 2,i;
	unsigned int timeout;//超时操作
	while(n--)
     c8e:	09 f4       	brne	.+2      	; 0xc92 <GET_GPRS_Signal+0x71e>
     c90:	c2 c0       	rjmp	.+388    	; 0xe16 <GET_GPRS_Signal+0x8a2>
     c92:	b1 cf       	rjmp	.-158    	; 0xbf6 <GET_GPRS_Signal+0x682>
	{
		memset(GPRS_Receive,0,100);
		timeout = 0xFFFF;
		GPRS_Receive_Flag = 0;
		USART1_Transmit_String(cmd);
		while((!(GPRS_Receive_Flag &((0x1<<4)|(0x1<<1)|(0x1<<3)|((0x1<<6)))))&& (timeout --))
     c94:	ad 2c       	mov	r10, r13
     c96:	09 c0       	rjmp	.+18     	; 0xcaa <GET_GPRS_Signal+0x736>
     c98:	3f ef       	ldi	r19, 0xFF	; 255
     c9a:	4f eb       	ldi	r20, 0xBF	; 191
     c9c:	81 e2       	ldi	r24, 0x21	; 33
     c9e:	31 50       	subi	r19, 0x01	; 1
     ca0:	40 40       	sbci	r20, 0x00	; 0
     ca2:	80 40       	sbci	r24, 0x00	; 0
     ca4:	e1 f7       	brne	.-8      	; 0xc9e <GET_GPRS_Signal+0x72a>
     ca6:	00 c0       	rjmp	.+0      	; 0xca8 <GET_GPRS_Signal+0x734>
     ca8:	00 00       	nop
     caa:	be 2c       	mov	r11, r14
{
	unsigned char n = 2,i;
	unsigned int timeout;//超时操作
	while(n--)
	{
		memset(GPRS_Receive,0,100);
     cac:	fe 01       	movw	r30, r28
     cae:	21 2f       	mov	r18, r17
     cb0:	11 92       	st	Z+, r1
     cb2:	2a 95       	dec	r18
     cb4:	e9 f7       	brne	.-6      	; 0xcb0 <GET_GPRS_Signal+0x73c>
		timeout = 0xFFFF;
		GPRS_Receive_Flag = 0;
     cb6:	10 92 a6 01 	sts	0x01A6, r1
     cba:	10 92 a5 01 	sts	0x01A5, r1
		USART1_Transmit_String(cmd);
     cbe:	83 e3       	ldi	r24, 0x33	; 51
     cc0:	91 e0       	ldi	r25, 0x01	; 1
     cc2:	0e 94 5b 15 	call	0x2ab6	; 0x2ab6 <USART1_Transmit_String>
		while((!(GPRS_Receive_Flag &((0x1<<4)|(0x1<<1)|(0x1<<3)|((0x1<<6)))))&& (timeout --))
     cc6:	20 91 a5 01 	lds	r18, 0x01A5
     cca:	30 91 a6 01 	lds	r19, 0x01A6
     cce:	c9 01       	movw	r24, r18
     cd0:	8a 75       	andi	r24, 0x5A	; 90
     cd2:	99 27       	eor	r25, r25
     cd4:	89 2b       	or	r24, r25
     cd6:	89 f4       	brne	.+34     	; 0xcfa <GET_GPRS_Signal+0x786>
     cd8:	8f 2d       	mov	r24, r15
     cda:	90 2f       	mov	r25, r16
	#else
		//round up by default
		__ticks_dc = (uint32_t)(ceil(fabs(__tmp)));
	#endif

	__builtin_avr_delay_cycles(__ticks_dc);
     cdc:	35 e2       	ldi	r19, 0x25	; 37
     cde:	3a 95       	dec	r19
     ce0:	f1 f7       	brne	.-4      	; 0xcde <GET_GPRS_Signal+0x76a>
     ce2:	20 91 a5 01 	lds	r18, 0x01A5
     ce6:	30 91 a6 01 	lds	r19, 0x01A6
     cea:	a9 01       	movw	r20, r18
     cec:	4a 75       	andi	r20, 0x5A	; 90
     cee:	55 27       	eor	r21, r21
     cf0:	45 2b       	or	r20, r21
     cf2:	19 f4       	brne	.+6      	; 0xcfa <GET_GPRS_Signal+0x786>
     cf4:	01 97       	sbiw	r24, 0x01	; 1
     cf6:	00 97       	sbiw	r24, 0x00	; 0
     cf8:	89 f7       	brne	.-30     	; 0xcdc <GET_GPRS_Signal+0x768>
			_delay_us(10);
		if(GPRS_Receive_Flag&(0x1<<4))
     cfa:	24 fd       	sbrc	r18, 4
     cfc:	26 c0       	rjmp	.+76     	; 0xd4a <GET_GPRS_Signal+0x7d6>
		{
			return 0;
		}

		if(	LCD_Ico &(0x01 << 6) )
     cfe:	80 91 8b 04 	lds	r24, 0x048B
     d02:	86 fd       	sbrc	r24, 6
     d04:	22 c0       	rjmp	.+68     	; 0xd4a <GET_GPRS_Signal+0x7d6>
		{
			return 0 ;
		}
		if(SCQ != 0)
     d06:	80 91 8c 04 	lds	r24, 0x048C
     d0a:	81 11       	cpse	r24, r1
     d0c:	1e c0       	rjmp	.+60     	; 0xd4a <GET_GPRS_Signal+0x7d6>
		{
			return 0;
		}
		if(GPRS_Receive_Flag&(0x1<<3))
     d0e:	23 fd       	sbrc	r18, 3
     d10:	1c c0       	rjmp	.+56     	; 0xd4a <GET_GPRS_Signal+0x7d6>
		{
			return 0 ;
		}
		if(GPRS_Receive_Flag&(0x01<<9))
     d12:	31 ff       	sbrs	r19, 1
     d14:	09 c0       	rjmp	.+18     	; 0xd28 <GET_GPRS_Signal+0x7b4>
	#else
		//round up by default
		__ticks_dc = (uint32_t)(ceil(fabs(__tmp)));
	#endif

	__builtin_avr_delay_cycles(__ticks_dc);
     d16:	4f ef       	ldi	r20, 0xFF	; 255
     d18:	8f e3       	ldi	r24, 0x3F	; 63
     d1a:	95 e6       	ldi	r25, 0x65	; 101
     d1c:	41 50       	subi	r20, 0x01	; 1
     d1e:	80 40       	sbci	r24, 0x00	; 0
     d20:	90 40       	sbci	r25, 0x00	; 0
     d22:	e1 f7       	brne	.-8      	; 0xd1c <GET_GPRS_Signal+0x7a8>
     d24:	00 c0       	rjmp	.+0      	; 0xd26 <GET_GPRS_Signal+0x7b2>
     d26:	00 00       	nop
		{
			_delay_ms(3000);
		}
		if(GPRS_Receive_Flag&(0x01<<1))
     d28:	80 91 a5 01 	lds	r24, 0x01A5
     d2c:	81 ff       	sbrs	r24, 1
     d2e:	09 c0       	rjmp	.+18     	; 0xd42 <GET_GPRS_Signal+0x7ce>
     d30:	ef ef       	ldi	r30, 0xFF	; 255
     d32:	ff e1       	ldi	r31, 0x1F	; 31
     d34:	2a e0       	ldi	r18, 0x0A	; 10
     d36:	e1 50       	subi	r30, 0x01	; 1
     d38:	f0 40       	sbci	r31, 0x00	; 0
     d3a:	20 40       	sbci	r18, 0x00	; 0
     d3c:	e1 f7       	brne	.-8      	; 0xd36 <GET_GPRS_Signal+0x7c2>
     d3e:	00 c0       	rjmp	.+0      	; 0xd40 <GET_GPRS_Signal+0x7cc>
     d40:	00 00       	nop
     d42:	ba 94       	dec	r11
}
inline unsigned char GPRS_Send_Cmd(unsigned char *cmd)
{
	unsigned char n = 2,i;
	unsigned int timeout;//超时操作
	while(n--)
     d44:	09 f4       	brne	.+2      	; 0xd48 <GET_GPRS_Signal+0x7d4>
     d46:	6b c0       	rjmp	.+214    	; 0xe1e <GET_GPRS_Signal+0x8aa>
     d48:	b1 cf       	rjmp	.-158    	; 0xcac <GET_GPRS_Signal+0x738>
							_delay_ms(10);
							if(SCQ != 0)
							{			
								_delay_ms(100);
								unsigned char time_out = 0xF;
								while(!(LCD_Ico &(0x1<<7))&&time_out--)
     d4a:	80 91 8b 04 	lds	r24, 0x048B
     d4e:	88 23       	and	r24, r24
     d50:	0c f4       	brge	.+2      	; 0xd54 <GET_GPRS_Signal+0x7e0>
     d52:	69 c0       	rjmp	.+210    	; 0xe26 <GET_GPRS_Signal+0x8b2>
     d54:	ca 94       	dec	r12
     d56:	09 f4       	brne	.+2      	; 0xd5a <GET_GPRS_Signal+0x7e6>
     d58:	66 c0       	rjmp	.+204    	; 0xe26 <GET_GPRS_Signal+0x8b2>
     d5a:	ad 2c       	mov	r10, r13
     d5c:	84 cd       	rjmp	.-1272   	; 0x866 <GET_GPRS_Signal+0x2f2>
}


inline void GPRS_Prot_Init(void)
{
	DDRA |= (1<<PA3);
     d5e:	d3 9a       	sbi	0x1a, 3	; 26
	PORTA|= (1<<PA3);
     d60:	db 9a       	sbi	0x1b, 3	; 27
     d62:	3f ef       	ldi	r19, 0xFF	; 255
     d64:	4f e5       	ldi	r20, 0x5F	; 95
     d66:	83 e0       	ldi	r24, 0x03	; 3
     d68:	31 50       	subi	r19, 0x01	; 1
     d6a:	40 40       	sbci	r20, 0x00	; 0
     d6c:	80 40       	sbci	r24, 0x00	; 0
     d6e:	e1 f7       	brne	.-8      	; 0xd68 <GET_GPRS_Signal+0x7f4>
     d70:	00 c0       	rjmp	.+0      	; 0xd72 <GET_GPRS_Signal+0x7fe>
     d72:	00 00       	nop
				break;
		 }
		GPRS_RESET();
		timeout = 150;
		//GPRS_Receive_Flag &= ~(0x1<<5);
		while(!(GPRS_Receive_Flag & 0x1<<5) && timeout --)
     d74:	d6 e9       	ldi	r29, 0x96	; 150
     d76:	c0 e0       	ldi	r28, 0x00	; 0
     d78:	6b cc       	rjmp	.-1834   	; 0x650 <GET_GPRS_Signal+0xdc>
     d7a:	9f ef       	ldi	r25, 0xFF	; 255
     d7c:	ef ea       	ldi	r30, 0xAF	; 175
     d7e:	f1 e0       	ldi	r31, 0x01	; 1
     d80:	91 50       	subi	r25, 0x01	; 1
     d82:	e0 40       	sbci	r30, 0x00	; 0
     d84:	f0 40       	sbci	r31, 0x00	; 0
     d86:	e1 f7       	brne	.-8      	; 0xd80 <GET_GPRS_Signal+0x80c>
     d88:	00 c0       	rjmp	.+0      	; 0xd8a <GET_GPRS_Signal+0x816>
     d8a:	00 00       	nop
     d8c:	12 e0       	ldi	r17, 0x02	; 2
{
	unsigned char n = 2,i;
	unsigned int timeout;//超时操作
	while(n--)
	{
		memset(GPRS_Receive,0,100);
     d8e:	cd e1       	ldi	r28, 0x1D	; 29
     d90:	d5 e0       	ldi	r29, 0x05	; 5
     d92:	04 e6       	ldi	r16, 0x64	; 100
		timeout = 0xFFFF;
		GPRS_Receive_Flag = 0;
		USART1_Transmit_String(cmd);
		while((!(GPRS_Receive_Flag &((0x1<<4)|(0x1<<1)|(0x1<<3)|((0x1<<6)))))&& (timeout --))
     d94:	ee 24       	eor	r14, r14
     d96:	ea 94       	dec	r14
     d98:	ff 24       	eor	r15, r15
     d9a:	fa 94       	dec	r15
     d9c:	a3 cc       	rjmp	.-1722   	; 0x6e4 <GET_GPRS_Signal+0x170>
			//PORTA |= 0x01<<PA2;
			BEEP(1);
			continue;	
		}
		timeout = 500;
		while(!(GPRS_Receive_Flag & 0x1<<6) && timeout --)
     d9e:	80 91 a5 01 	lds	r24, 0x01A5
     da2:	86 fd       	sbrc	r24, 6
     da4:	97 cc       	rjmp	.-1746   	; 0x6d4 <GET_GPRS_Signal+0x160>
     da6:	84 ef       	ldi	r24, 0xF4	; 244
     da8:	91 e0       	ldi	r25, 0x01	; 1
     daa:	84 cc       	rjmp	.-1784   	; 0x6b4 <GET_GPRS_Signal+0x140>
			_delay_ms(20);
		if(!(GPRS_Receive_Flag & 0x1<<5))
		{
			//DDRA |= 0x01<<PA2;
			//PORTA |= 0x01<<PA2;
			BEEP(1);
     dac:	81 e0       	ldi	r24, 0x01	; 1
     dae:	0e 94 d0 00 	call	0x1a0	; 0x1a0 <BEEP>
     db2:	4e cc       	rjmp	.-1892   	; 0x650 <GET_GPRS_Signal+0xdc>
     db4:	2f ef       	ldi	r18, 0xFF	; 255
     db6:	3f ea       	ldi	r19, 0xAF	; 175
     db8:	41 e0       	ldi	r20, 0x01	; 1
     dba:	21 50       	subi	r18, 0x01	; 1
     dbc:	30 40       	sbci	r19, 0x00	; 0
     dbe:	40 40       	sbci	r20, 0x00	; 0
     dc0:	e1 f7       	brne	.-8      	; 0xdba <GET_GPRS_Signal+0x846>
     dc2:	00 c0       	rjmp	.+0      	; 0xdc4 <GET_GPRS_Signal+0x850>
     dc4:	00 00       	nop
     dc6:	12 e0       	ldi	r17, 0x02	; 2
{
	unsigned char n = 2,i;
	unsigned int timeout;//超时操作
	while(n--)
	{
		memset(GPRS_Receive,0,100);
     dc8:	cd e1       	ldi	r28, 0x1D	; 29
     dca:	d5 e0       	ldi	r29, 0x05	; 5
     dcc:	04 e6       	ldi	r16, 0x64	; 100
		timeout = 0xFFFF;
		GPRS_Receive_Flag = 0;
		USART1_Transmit_String(cmd);
		while((!(GPRS_Receive_Flag &((0x1<<4)|(0x1<<1)|(0x1<<3)|((0x1<<6)))))&& (timeout --))
     dce:	ee 24       	eor	r14, r14
     dd0:	ea 94       	dec	r14
     dd2:	ff 24       	eor	r15, r15
     dd4:	fa 94       	dec	r15
     dd6:	d5 cc       	rjmp	.-1622   	; 0x782 <GET_GPRS_Signal+0x20e>
     dd8:	8f ef       	ldi	r24, 0xFF	; 255
     dda:	9b e6       	ldi	r25, 0x6B	; 107
     ddc:	01 97       	sbiw	r24, 0x01	; 1
     dde:	f1 f7       	brne	.-4      	; 0xddc <GET_GPRS_Signal+0x868>
     de0:	00 c0       	rjmp	.+0      	; 0xde2 <GET_GPRS_Signal+0x86e>
     de2:	00 00       	nop
						_delay_ms(50);
						if((!GPRS_Send_Cmd(sendcsq)))
						{
							
							_delay_ms(10);
							if(SCQ != 0)
     de4:	80 91 8c 04 	lds	r24, 0x048C
     de8:	88 23       	and	r24, r24
     dea:	e9 f0       	breq	.+58     	; 0xe26 <GET_GPRS_Signal+0x8b2>
     dec:	19 cd       	rjmp	.-1486   	; 0x820 <GET_GPRS_Signal+0x2ac>
     dee:	aa 94       	dec	r10
{
	//GPRS_Mode_At();
	//GPRS_Send_Cmd(sendatmode);
	//_delay_ms(100);
	unsigned char timeout = TIME_OUT;
	while(GPRS_Send_Cmd(sendat)&&timeout--)
     df0:	09 f0       	breq	.+2      	; 0xdf4 <GET_GPRS_Signal+0x880>
     df2:	30 cd       	rjmp	.-1440   	; 0x854 <GET_GPRS_Signal+0x2e0>
     df4:	88 cd       	rjmp	.-1264   	; 0x906 <GET_GPRS_Signal+0x392>
     df6:	aa 94       	dec	r10
	_delay_ms(COUNT_TIME);
	timeout = TIME_OUT;
	while(GPRS_Send_Cmd(sendhx)&&timeout--)
     df8:	09 f0       	breq	.+2      	; 0xdfc <GET_GPRS_Signal+0x888>
     dfa:	87 cd       	rjmp	.-1266   	; 0x90a <GET_GPRS_Signal+0x396>
     dfc:	df cd       	rjmp	.-1090   	; 0x9bc <GET_GPRS_Signal+0x448>
     dfe:	aa 94       	dec	r10
	_delay_ms(COUNT_TIME);
	timeout = TIME_OUT;
	while(GPRS_Send_Cmd(sendsim)&&timeout--)
     e00:	09 f0       	breq	.+2      	; 0xe04 <GET_GPRS_Signal+0x890>
     e02:	de cd       	rjmp	.-1092   	; 0x9c0 <GET_GPRS_Signal+0x44c>
     e04:	36 ce       	rjmp	.-916    	; 0xa72 <GET_GPRS_Signal+0x4fe>
     e06:	aa 94       	dec	r10
	_delay_ms(COUNT_TIME);
	timeout = TIME_OUT;
	while(GPRS_Send_Cmd(sendcsq)&&timeout--)
     e08:	09 f0       	breq	.+2      	; 0xe0c <GET_GPRS_Signal+0x898>
     e0a:	35 ce       	rjmp	.-918    	; 0xa76 <GET_GPRS_Signal+0x502>
     e0c:	8d ce       	rjmp	.-742    	; 0xb28 <GET_GPRS_Signal+0x5b4>
     e0e:	aa 94       	dec	r10
	_delay_ms(COUNT_TIME);
	timeout = TIME_OUT;
	while(GPRS_Send_Cmd(sendfu)&&timeout--)
     e10:	09 f0       	breq	.+2      	; 0xe14 <GET_GPRS_Signal+0x8a0>
     e12:	8c ce       	rjmp	.-744    	; 0xb2c <GET_GPRS_Signal+0x5b8>
     e14:	e4 ce       	rjmp	.-568    	; 0xbde <GET_GPRS_Signal+0x66a>
     e16:	aa 94       	dec	r10
	_delay_ms(500);
	timeout = TIME_OUT;
	while(GPRS_Send_Cmd(sendpdp)&&timeout--)
     e18:	09 f0       	breq	.+2      	; 0xe1c <GET_GPRS_Signal+0x8a8>
     e1a:	e3 ce       	rjmp	.-570    	; 0xbe2 <GET_GPRS_Signal+0x66e>
     e1c:	3b cf       	rjmp	.-394    	; 0xc94 <GET_GPRS_Signal+0x720>
     e1e:	aa 94       	dec	r10
	_delay_ms(200);
	timeout = TIME_OUT;	
	while(GPRS_Send_Cmd(sendjh)&&timeout--)	
     e20:	09 f0       	breq	.+2      	; 0xe24 <GET_GPRS_Signal+0x8b0>
     e22:	3a cf       	rjmp	.-396    	; 0xc98 <GET_GPRS_Signal+0x724>
     e24:	92 cf       	rjmp	.-220    	; 0xd4a <GET_GPRS_Signal+0x7d6>
						}
		
				}
		}

}
     e26:	df 91       	pop	r29
     e28:	cf 91       	pop	r28
     e2a:	1f 91       	pop	r17
     e2c:	0f 91       	pop	r16
     e2e:	ff 90       	pop	r15
     e30:	ef 90       	pop	r14
     e32:	df 90       	pop	r13
     e34:	cf 90       	pop	r12
     e36:	bf 90       	pop	r11
     e38:	af 90       	pop	r10
     e3a:	08 95       	ret

00000e3c <swap>:


void swap(char *a,char *b)
{	
     e3c:	fc 01       	movw	r30, r24
     e3e:	db 01       	movw	r26, r22
	*a = *a ^ *b;
     e40:	90 81       	ld	r25, Z
     e42:	8c 91       	ld	r24, X
     e44:	89 27       	eor	r24, r25
     e46:	80 83       	st	Z, r24
	*b = *a ^ *b;
     e48:	9c 91       	ld	r25, X
     e4a:	89 27       	eor	r24, r25
     e4c:	8c 93       	st	X, r24
	*a = *a ^ *b;
     e4e:	90 81       	ld	r25, Z
     e50:	89 27       	eor	r24, r25
     e52:	80 83       	st	Z, r24
     e54:	08 95       	ret

00000e56 <revstr>:
}
char *revstr(char *str, size_t len)
{
     e56:	ef 92       	push	r14
     e58:	ff 92       	push	r15
     e5a:	0f 93       	push	r16
     e5c:	1f 93       	push	r17
     e5e:	cf 93       	push	r28
     e60:	df 93       	push	r29
     e62:	7c 01       	movw	r14, r24

	char    *start = str;
	char    *end = str + len - 1;
     e64:	61 50       	subi	r22, 0x01	; 1
     e66:	71 09       	sbc	r23, r1
     e68:	68 0f       	add	r22, r24
     e6a:	79 1f       	adc	r23, r25
	if (str != NULL)
     e6c:	00 97       	sbiw	r24, 0x00	; 0
     e6e:	81 f0       	breq	.+32     	; 0xe90 <revstr+0x3a>
	{
		while (start < end)
     e70:	86 17       	cp	r24, r22
     e72:	97 07       	cpc	r25, r23
     e74:	68 f4       	brcc	.+26     	; 0xe90 <revstr+0x3a>
		swap(start++, end --);
     e76:	8b 01       	movw	r16, r22
     e78:	01 50       	subi	r16, 0x01	; 1
     e7a:	11 09       	sbc	r17, r1
     e7c:	ec 01       	movw	r28, r24
     e7e:	21 96       	adiw	r28, 0x01	; 1
     e80:	0e 94 1e 07 	call	0xe3c	; 0xe3c <swap>

	char    *start = str;
	char    *end = str + len - 1;
	if (str != NULL)
	{
		while (start < end)
     e84:	c0 17       	cp	r28, r16
     e86:	d1 07       	cpc	r29, r17
     e88:	18 f4       	brcc	.+6      	; 0xe90 <revstr+0x3a>
		swap(start++, end --);
     e8a:	b8 01       	movw	r22, r16
     e8c:	ce 01       	movw	r24, r28
     e8e:	f3 cf       	rjmp	.-26     	; 0xe76 <revstr+0x20>
	}
	return str;
}
     e90:	c7 01       	movw	r24, r14
     e92:	df 91       	pop	r29
     e94:	cf 91       	pop	r28
     e96:	1f 91       	pop	r17
     e98:	0f 91       	pop	r16
     e9a:	ff 90       	pop	r15
     e9c:	ef 90       	pop	r14
     e9e:	08 95       	ret

00000ea0 <itoc>:
unsigned char * itoc(unsigned char *c,unsigned int i)
{
     ea0:	1f 93       	push	r17
     ea2:	cf 93       	push	r28
     ea4:	df 93       	push	r29
     ea6:	ec 01       	movw	r28, r24
     ea8:	ab 01       	movw	r20, r22
	unsigned char len = 0;
	while(i)
     eaa:	61 15       	cp	r22, r1
     eac:	71 05       	cpc	r23, r1
     eae:	79 f1       	breq	.+94     	; 0xf0e <itoc+0x6e>
	}
	return str;
}
unsigned char * itoc(unsigned char *c,unsigned int i)
{
	unsigned char len = 0;
     eb0:	10 e0       	ldi	r17, 0x00	; 0
	while(i)
	{
		*(c+len) = i%10 +0x30;
     eb2:	fe 01       	movw	r30, r28
     eb4:	e1 0f       	add	r30, r17
     eb6:	f1 1d       	adc	r31, r1
     eb8:	9a 01       	movw	r18, r20
     eba:	ad ec       	ldi	r26, 0xCD	; 205
     ebc:	bc ec       	ldi	r27, 0xCC	; 204
     ebe:	0e 94 08 17 	call	0x2e10	; 0x2e10 <__umulhisi3>
     ec2:	9c 01       	movw	r18, r24
     ec4:	36 95       	lsr	r19
     ec6:	27 95       	ror	r18
     ec8:	36 95       	lsr	r19
     eca:	27 95       	ror	r18
     ecc:	36 95       	lsr	r19
     ece:	27 95       	ror	r18
     ed0:	c9 01       	movw	r24, r18
     ed2:	88 0f       	add	r24, r24
     ed4:	99 1f       	adc	r25, r25
     ed6:	22 0f       	add	r18, r18
     ed8:	33 1f       	adc	r19, r19
     eda:	22 0f       	add	r18, r18
     edc:	33 1f       	adc	r19, r19
     ede:	22 0f       	add	r18, r18
     ee0:	33 1f       	adc	r19, r19
     ee2:	28 0f       	add	r18, r24
     ee4:	39 1f       	adc	r19, r25
     ee6:	ca 01       	movw	r24, r20
     ee8:	82 1b       	sub	r24, r18
     eea:	93 0b       	sbc	r25, r19
     eec:	9c 01       	movw	r18, r24
     eee:	20 5d       	subi	r18, 0xD0	; 208
     ef0:	20 83       	st	Z, r18
		i = i/10;
     ef2:	9a 01       	movw	r18, r20
     ef4:	0e 94 08 17 	call	0x2e10	; 0x2e10 <__umulhisi3>
     ef8:	ac 01       	movw	r20, r24
     efa:	56 95       	lsr	r21
     efc:	47 95       	ror	r20
     efe:	56 95       	lsr	r21
     f00:	47 95       	ror	r20
     f02:	56 95       	lsr	r21
     f04:	47 95       	ror	r20
		//c ++;
		len ++;
     f06:	1f 5f       	subi	r17, 0xFF	; 255
	return str;
}
unsigned char * itoc(unsigned char *c,unsigned int i)
{
	unsigned char len = 0;
	while(i)
     f08:	41 15       	cp	r20, r1
     f0a:	51 05       	cpc	r21, r1
     f0c:	91 f6       	brne	.-92     	; 0xeb2 <itoc+0x12>
		len ++;
	}
	//USART0_Transmit_nChar(c,len);
	return c;
	//return revstr(c,len);
}
     f0e:	ce 01       	movw	r24, r28
     f10:	df 91       	pop	r29
     f12:	cf 91       	pop	r28
     f14:	1f 91       	pop	r17
     f16:	08 95       	ret

00000f18 <itoa>:
unsigned char *itoa(unsigned char *c,unsigned int i)
{
     f18:	cf 93       	push	r28
     f1a:	df 93       	push	r29
     f1c:	ec 01       	movw	r28, r24
	itoc(c,i);
     f1e:	0e 94 50 07 	call	0xea0	; 0xea0 <itoc>
	//USART0_Transmit_String(c);
	revstr(c,strlen(c));
     f22:	fe 01       	movw	r30, r28
     f24:	01 90       	ld	r0, Z+
     f26:	00 20       	and	r0, r0
     f28:	e9 f7       	brne	.-6      	; 0xf24 <itoa+0xc>
     f2a:	31 97       	sbiw	r30, 0x01	; 1
     f2c:	bf 01       	movw	r22, r30
     f2e:	6c 1b       	sub	r22, r28
     f30:	7d 0b       	sbc	r23, r29
     f32:	ce 01       	movw	r24, r28
     f34:	0e 94 2b 07 	call	0xe56	; 0xe56 <revstr>
	//USART0_Transmit(strlen(c));
	return c;
}
     f38:	ce 01       	movw	r24, r28
     f3a:	df 91       	pop	r29
     f3c:	cf 91       	pop	r28
     f3e:	08 95       	ret

00000f40 <ShortTurl>:
/************************************************************************/
/* 返回数据长度:返回0数据错误                                           */
/************************************************************************/

inline unsigned char ShortTurl(unsigned char *Send_Data, unsigned int Send_Len,unsigned char *Rece_Data)
{
     f40:	3f 92       	push	r3
     f42:	4f 92       	push	r4
     f44:	5f 92       	push	r5
     f46:	6f 92       	push	r6
     f48:	7f 92       	push	r7
     f4a:	8f 92       	push	r8
     f4c:	9f 92       	push	r9
     f4e:	af 92       	push	r10
     f50:	bf 92       	push	r11
     f52:	cf 92       	push	r12
     f54:	df 92       	push	r13
     f56:	ef 92       	push	r14
     f58:	ff 92       	push	r15
     f5a:	0f 93       	push	r16
     f5c:	1f 93       	push	r17
     f5e:	cf 93       	push	r28
     f60:	df 93       	push	r29
     f62:	cd b7       	in	r28, 0x3d	; 61
     f64:	de b7       	in	r29, 0x3e	; 62
     f66:	65 97       	sbiw	r28, 0x15	; 21
     f68:	0f b6       	in	r0, 0x3f	; 63
     f6a:	f8 94       	cli
     f6c:	de bf       	out	0x3e, r29	; 62
     f6e:	0f be       	out	0x3f, r0	; 63
     f70:	cd bf       	out	0x3d, r28	; 61
     f72:	8c 01       	movw	r16, r24
     f74:	b6 2e       	mov	r11, r22
     f76:	a7 2e       	mov	r10, r23
     f78:	7a 01       	movw	r14, r20
	//LEDON;
		
	unsigned char len = 0x0;
#if 1	
	if((LCD_Ico & (0x1 << 7)))
     f7a:	80 91 8b 04 	lds	r24, 0x048B
     f7e:	88 23       	and	r24, r24
     f80:	0c f0       	brlt	.+2      	; 0xf84 <ShortTurl+0x44>
     f82:	03 c2       	rjmp	.+1030   	; 0x138a <__stack+0x28b>
     f84:	68 94       	set
     f86:	99 24       	eor	r9, r9
     f88:	91 f8       	bld	r9, 1
{
	unsigned char n = 2,i;
	unsigned int timeout;//超时操作
	while(n--)
	{
		memset(GPRS_Receive,0,100);
     f8a:	0f 2e       	mov	r0, r31
     f8c:	fd e1       	ldi	r31, 0x1D	; 29
     f8e:	cf 2e       	mov	r12, r31
     f90:	f5 e0       	ldi	r31, 0x05	; 5
     f92:	df 2e       	mov	r13, r31
     f94:	f0 2d       	mov	r31, r0
     f96:	0f 2e       	mov	r0, r31
     f98:	f4 e6       	ldi	r31, 0x64	; 100
     f9a:	8f 2e       	mov	r8, r31
     f9c:	f0 2d       	mov	r31, r0
		timeout = 0xFFFF;
		GPRS_Receive_Flag = 0;
		USART1_Transmit_String(cmd);
		while((!(GPRS_Receive_Flag &((0x1<<4)|(0x1<<1)|(0x1<<3)|((0x1<<6)))))&& (timeout --))
     f9e:	66 24       	eor	r6, r6
     fa0:	6a 94       	dec	r6
     fa2:	77 24       	eor	r7, r7
     fa4:	7a 94       	dec	r7
{
	unsigned char n = 2,i;
	unsigned int timeout;//超时操作
	while(n--)
	{
		memset(GPRS_Receive,0,100);
     fa6:	f6 01       	movw	r30, r12
     fa8:	28 2d       	mov	r18, r8
     faa:	11 92       	st	Z+, r1
     fac:	2a 95       	dec	r18
     fae:	e9 f7       	brne	.-6      	; 0xfaa <ShortTurl+0x6a>
		timeout = 0xFFFF;
		GPRS_Receive_Flag = 0;
     fb0:	10 92 a6 01 	sts	0x01A6, r1
     fb4:	10 92 a5 01 	sts	0x01A5, r1
		USART1_Transmit_String(cmd);
     fb8:	81 e8       	ldi	r24, 0x81	; 129
     fba:	91 e0       	ldi	r25, 0x01	; 1
     fbc:	0e 94 5b 15 	call	0x2ab6	; 0x2ab6 <USART1_Transmit_String>
		while((!(GPRS_Receive_Flag &((0x1<<4)|(0x1<<1)|(0x1<<3)|((0x1<<6)))))&& (timeout --))
     fc0:	e0 91 a5 01 	lds	r30, 0x01A5
     fc4:	f0 91 a6 01 	lds	r31, 0x01A6
     fc8:	cf 01       	movw	r24, r30
     fca:	8a 75       	andi	r24, 0x5A	; 90
     fcc:	99 27       	eor	r25, r25
     fce:	89 2b       	or	r24, r25
     fd0:	99 f4       	brne	.+38     	; 0xff8 <ShortTurl+0xb8>
     fd2:	26 2d       	mov	r18, r6
     fd4:	37 2d       	mov	r19, r7
	#else
		//round up by default
		__ticks_dc = (uint32_t)(ceil(fabs(__tmp)));
	#endif

	__builtin_avr_delay_cycles(__ticks_dc);
     fd6:	85 e2       	ldi	r24, 0x25	; 37
     fd8:	8a 95       	dec	r24
     fda:	f1 f7       	brne	.-4      	; 0xfd8 <ShortTurl+0x98>
     fdc:	e0 91 a5 01 	lds	r30, 0x01A5
     fe0:	f0 91 a6 01 	lds	r31, 0x01A6
     fe4:	cf 01       	movw	r24, r30
     fe6:	8a 75       	andi	r24, 0x5A	; 90
     fe8:	99 27       	eor	r25, r25
     fea:	89 2b       	or	r24, r25
     fec:	29 f4       	brne	.+10     	; 0xff8 <ShortTurl+0xb8>
     fee:	21 50       	subi	r18, 0x01	; 1
     ff0:	31 09       	sbc	r19, r1
     ff2:	21 15       	cp	r18, r1
     ff4:	31 05       	cpc	r19, r1
     ff6:	79 f7       	brne	.-34     	; 0xfd6 <ShortTurl+0x96>
			_delay_us(10);
		if(GPRS_Receive_Flag&(0x1<<4))
     ff8:	e4 fd       	sbrc	r30, 4
     ffa:	cd c1       	rjmp	.+922    	; 0x1396 <__stack+0x297>
		{
			return 0;
		}

		if(	LCD_Ico &(0x01 << 6) )
     ffc:	80 91 8b 04 	lds	r24, 0x048B
    1000:	86 fd       	sbrc	r24, 6
    1002:	c9 c1       	rjmp	.+914    	; 0x1396 <__stack+0x297>
		{
			return 0 ;
		}
		if(SCQ != 0)
    1004:	80 91 8c 04 	lds	r24, 0x048C
    1008:	81 11       	cpse	r24, r1
    100a:	c5 c1       	rjmp	.+906    	; 0x1396 <__stack+0x297>
		{
			return 0;
		}
		if(GPRS_Receive_Flag&(0x1<<3))
    100c:	e3 fd       	sbrc	r30, 3
    100e:	c3 c1       	rjmp	.+902    	; 0x1396 <__stack+0x297>
		{
			return 0 ;
		}
		if(GPRS_Receive_Flag&(0x01<<9))
    1010:	f1 ff       	sbrs	r31, 1
    1012:	09 c0       	rjmp	.+18     	; 0x1026 <ShortTurl+0xe6>
	#else
		//round up by default
		__ticks_dc = (uint32_t)(ceil(fabs(__tmp)));
	#endif

	__builtin_avr_delay_cycles(__ticks_dc);
    1014:	9f ef       	ldi	r25, 0xFF	; 255
    1016:	ef e3       	ldi	r30, 0x3F	; 63
    1018:	f5 e6       	ldi	r31, 0x65	; 101
    101a:	91 50       	subi	r25, 0x01	; 1
    101c:	e0 40       	sbci	r30, 0x00	; 0
    101e:	f0 40       	sbci	r31, 0x00	; 0
    1020:	e1 f7       	brne	.-8      	; 0x101a <ShortTurl+0xda>
    1022:	00 c0       	rjmp	.+0      	; 0x1024 <ShortTurl+0xe4>
    1024:	00 00       	nop
		{
			_delay_ms(3000);
		}
		if(GPRS_Receive_Flag&(0x01<<1))
    1026:	80 91 a5 01 	lds	r24, 0x01A5
    102a:	81 ff       	sbrs	r24, 1
    102c:	09 c0       	rjmp	.+18     	; 0x1040 <ShortTurl+0x100>
    102e:	2f ef       	ldi	r18, 0xFF	; 255
    1030:	8f e1       	ldi	r24, 0x1F	; 31
    1032:	9a e0       	ldi	r25, 0x0A	; 10
    1034:	21 50       	subi	r18, 0x01	; 1
    1036:	80 40       	sbci	r24, 0x00	; 0
    1038:	90 40       	sbci	r25, 0x00	; 0
    103a:	e1 f7       	brne	.-8      	; 0x1034 <ShortTurl+0xf4>
    103c:	00 c0       	rjmp	.+0      	; 0x103e <ShortTurl+0xfe>
    103e:	00 00       	nop
    1040:	9a 94       	dec	r9
}
inline unsigned char GPRS_Send_Cmd(unsigned char *cmd)
{
	unsigned char n = 2,i;
	unsigned int timeout;//超时操作
	while(n--)
    1042:	09 f4       	brne	.+2      	; 0x1046 <ShortTurl+0x106>
    1044:	18 c2       	rjmp	.+1072   	; 0x1476 <__stack+0x377>
    1046:	af cf       	rjmp	.-162    	; 0xfa6 <ShortTurl+0x66>
	_delay_ms(200);
		//USART0_Transmit_String("------------TCPCONET");
	unsigned char n = 2 ,i;
	while(n--)
	{
		memset(GPRS_Receive,0,100);
    1048:	f6 01       	movw	r30, r12
    104a:	28 2d       	mov	r18, r8
    104c:	11 92       	st	Z+, r1
    104e:	2a 95       	dec	r18
    1050:	e9 f7       	brne	.-6      	; 0x104c <ShortTurl+0x10c>
		timeout = 0xFFF;
		GPRS_Receive_Flag = 0;
    1052:	10 92 a6 01 	sts	0x01A6, r1
    1056:	10 92 a5 01 	sts	0x01A5, r1
    105a:	8f ef       	ldi	r24, 0xFF	; 255
    105c:	9f ea       	ldi	r25, 0xAF	; 175
    105e:	e1 e0       	ldi	r30, 0x01	; 1
    1060:	81 50       	subi	r24, 0x01	; 1
    1062:	90 40       	sbci	r25, 0x00	; 0
    1064:	e0 40       	sbci	r30, 0x00	; 0
    1066:	e1 f7       	brne	.-8      	; 0x1060 <ShortTurl+0x120>
    1068:	00 c0       	rjmp	.+0      	; 0x106a <ShortTurl+0x12a>
    106a:	00 00       	nop
		//BEEP(1);
		_delay_ms(50);
		
//		GPRS_Send_Cmd(sendnet);
#if 1		
		USART1_Transmit_String(sendnet);
    106c:	8e e0       	ldi	r24, 0x0E	; 14
    106e:	91 e0       	ldi	r25, 0x01	; 1
    1070:	0e 94 5b 15 	call	0x2ab6	; 0x2ab6 <USART1_Transmit_String>
		while((!(GPRS_Receive_Flag&((0x1<<4)|(0x1<<1))))&&(timeout --))
    1074:	80 91 a5 01 	lds	r24, 0x01A5
    1078:	90 91 a6 01 	lds	r25, 0x01A6
    107c:	9c 01       	movw	r18, r24
    107e:	22 71       	andi	r18, 0x12	; 18
    1080:	33 27       	eor	r19, r19
    1082:	23 2b       	or	r18, r19
    1084:	91 f4       	brne	.+36     	; 0x10aa <ShortTurl+0x16a>
    1086:	47 2d       	mov	r20, r7
    1088:	8f ef       	ldi	r24, 0xFF	; 255
    108a:	9b e6       	ldi	r25, 0x6B	; 107
    108c:	01 97       	sbiw	r24, 0x01	; 1
    108e:	f1 f7       	brne	.-4      	; 0x108c <ShortTurl+0x14c>
    1090:	00 c0       	rjmp	.+0      	; 0x1092 <ShortTurl+0x152>
    1092:	00 00       	nop
    1094:	80 91 a5 01 	lds	r24, 0x01A5
    1098:	90 91 a6 01 	lds	r25, 0x01A6
    109c:	9c 01       	movw	r18, r24
    109e:	22 71       	andi	r18, 0x12	; 18
    10a0:	33 27       	eor	r19, r19
    10a2:	23 2b       	or	r18, r19
    10a4:	11 f4       	brne	.+4      	; 0x10aa <ShortTurl+0x16a>
    10a6:	41 50       	subi	r20, 0x01	; 1
    10a8:	79 f7       	brne	.-34     	; 0x1088 <ShortTurl+0x148>
		{
			_delay_ms(10);
		}
#endif

		if(GPRS_Receive_Flag&(0x1<<4))break;
    10aa:	84 fd       	sbrc	r24, 4
    10ac:	5f c0       	rjmp	.+190    	; 0x116c <__stack+0x6d>
    10ae:	9f ef       	ldi	r25, 0xFF	; 255
    10b0:	ef e1       	ldi	r30, 0x1F	; 31
    10b2:	fa e0       	ldi	r31, 0x0A	; 10
    10b4:	91 50       	subi	r25, 0x01	; 1
    10b6:	e0 40       	sbci	r30, 0x00	; 0
    10b8:	f0 40       	sbci	r31, 0x00	; 0
    10ba:	e1 f7       	brne	.-8      	; 0x10b4 <ShortTurl+0x174>
    10bc:	00 c0       	rjmp	.+0      	; 0x10be <ShortTurl+0x17e>
    10be:	00 00       	nop
		if(GPRS_Receive_Flag&(0x01<<1))
		{
			_delay_ms(500);
		}
#endif
 		if(GPRS_Receive_Flag&(0x1<<1))
    10c0:	80 91 a5 01 	lds	r24, 0x01A5
    10c4:	81 ff       	sbrs	r24, 1
    10c6:	4f c0       	rjmp	.+158    	; 0x1166 <__stack+0x67>
    10c8:	34 2c       	mov	r3, r4
{
	unsigned char n = 2,i;
	unsigned int timeout;//超时操作
	while(n--)
	{
		memset(GPRS_Receive,0,100);
    10ca:	f6 01       	movw	r30, r12
    10cc:	28 2d       	mov	r18, r8
    10ce:	11 92       	st	Z+, r1
    10d0:	2a 95       	dec	r18
    10d2:	e9 f7       	brne	.-6      	; 0x10ce <ShortTurl+0x18e>
		timeout = 0xFFFF;
		GPRS_Receive_Flag = 0;
    10d4:	10 92 a6 01 	sts	0x01A6, r1
    10d8:	10 92 a5 01 	sts	0x01A5, r1
		USART1_Transmit_String(cmd);
    10dc:	80 e0       	ldi	r24, 0x00	; 0
    10de:	91 e0       	ldi	r25, 0x01	; 1
    10e0:	0e 94 5b 15 	call	0x2ab6	; 0x2ab6 <USART1_Transmit_String>
		while((!(GPRS_Receive_Flag &((0x1<<4)|(0x1<<1)|(0x1<<3)|((0x1<<6)))))&& (timeout --))
    10e4:	20 91 a5 01 	lds	r18, 0x01A5
    10e8:	30 91 a6 01 	lds	r19, 0x01A6
    10ec:	c9 01       	movw	r24, r18
    10ee:	8a 75       	andi	r24, 0x5A	; 90
    10f0:	99 27       	eor	r25, r25
    10f2:	89 2b       	or	r24, r25
    10f4:	89 f4       	brne	.+34     	; 0x1118 <__stack+0x19>
    10f6:	85 2d       	mov	r24, r5
    10f8:	96 2d       	mov	r25, r6
	#else
		//round up by default
		__ticks_dc = (uint32_t)(ceil(fabs(__tmp)));
	#endif

	__builtin_avr_delay_cycles(__ticks_dc);
    10fa:	e5 e2       	ldi	r30, 0x25	; 37
    10fc:	ea 95       	dec	r30
    10fe:	f1 f7       	brne	.-4      	; 0x10fc <ShortTurl+0x1bc>
    1100:	20 91 a5 01 	lds	r18, 0x01A5
    1104:	30 91 a6 01 	lds	r19, 0x01A6
    1108:	a9 01       	movw	r20, r18
    110a:	4a 75       	andi	r20, 0x5A	; 90
    110c:	55 27       	eor	r21, r21
    110e:	45 2b       	or	r20, r21
    1110:	19 f4       	brne	.+6      	; 0x1118 <__stack+0x19>
    1112:	01 97       	sbiw	r24, 0x01	; 1
    1114:	00 97       	sbiw	r24, 0x00	; 0
    1116:	89 f7       	brne	.-30     	; 0x10fa <ShortTurl+0x1ba>
			_delay_us(10);
		if(GPRS_Receive_Flag&(0x1<<4))
    1118:	24 fd       	sbrc	r18, 4
    111a:	25 c0       	rjmp	.+74     	; 0x1166 <__stack+0x67>
		{
			return 0;
		}

		if(	LCD_Ico &(0x01 << 6) )
    111c:	80 91 8b 04 	lds	r24, 0x048B
    1120:	86 fd       	sbrc	r24, 6
    1122:	21 c0       	rjmp	.+66     	; 0x1166 <__stack+0x67>
		{
			return 0 ;
		}
		if(SCQ != 0)
    1124:	80 91 8c 04 	lds	r24, 0x048C
    1128:	81 11       	cpse	r24, r1
    112a:	1d c0       	rjmp	.+58     	; 0x1166 <__stack+0x67>
		{
			return 0;
		}
		if(GPRS_Receive_Flag&(0x1<<3))
    112c:	23 fd       	sbrc	r18, 3
    112e:	1b c0       	rjmp	.+54     	; 0x1166 <__stack+0x67>
		{
			return 0 ;
		}
		if(GPRS_Receive_Flag&(0x01<<9))
    1130:	31 ff       	sbrs	r19, 1
    1132:	09 c0       	rjmp	.+18     	; 0x1146 <__stack+0x47>
	#else
		//round up by default
		__ticks_dc = (uint32_t)(ceil(fabs(__tmp)));
	#endif

	__builtin_avr_delay_cycles(__ticks_dc);
    1134:	ff ef       	ldi	r31, 0xFF	; 255
    1136:	2f e3       	ldi	r18, 0x3F	; 63
    1138:	85 e6       	ldi	r24, 0x65	; 101
    113a:	f1 50       	subi	r31, 0x01	; 1
    113c:	20 40       	sbci	r18, 0x00	; 0
    113e:	80 40       	sbci	r24, 0x00	; 0
    1140:	e1 f7       	brne	.-8      	; 0x113a <__stack+0x3b>
    1142:	00 c0       	rjmp	.+0      	; 0x1144 <__stack+0x45>
    1144:	00 00       	nop
		{
			_delay_ms(3000);
		}
		if(GPRS_Receive_Flag&(0x01<<1))
    1146:	80 91 a5 01 	lds	r24, 0x01A5
    114a:	81 ff       	sbrs	r24, 1
    114c:	09 c0       	rjmp	.+18     	; 0x1160 <__stack+0x61>
    114e:	9f ef       	ldi	r25, 0xFF	; 255
    1150:	ef e1       	ldi	r30, 0x1F	; 31
    1152:	fa e0       	ldi	r31, 0x0A	; 10
    1154:	91 50       	subi	r25, 0x01	; 1
    1156:	e0 40       	sbci	r30, 0x00	; 0
    1158:	f0 40       	sbci	r31, 0x00	; 0
    115a:	e1 f7       	brne	.-8      	; 0x1154 <__stack+0x55>
    115c:	00 c0       	rjmp	.+0      	; 0x115e <__stack+0x5f>
    115e:	00 00       	nop
    1160:	3a 94       	dec	r3
}
inline unsigned char GPRS_Send_Cmd(unsigned char *cmd)
{
	unsigned char n = 2,i;
	unsigned int timeout;//超时操作
	while(n--)
    1162:	09 f0       	breq	.+2      	; 0x1166 <__stack+0x67>
    1164:	b2 cf       	rjmp	.-156    	; 0x10ca <ShortTurl+0x18a>
    1166:	9a 94       	dec	r9
		unsigned char timeout = 800;
	//GPRS_Send_Cmd(sendtcpclose);
	_delay_ms(200);
		//USART0_Transmit_String("------------TCPCONET");
	unsigned char n = 2 ,i;
	while(n--)
    1168:	09 f0       	breq	.+2      	; 0x116c <__stack+0x6d>
    116a:	6e cf       	rjmp	.-292    	; 0x1048 <ShortTurl+0x108>
	}
	
	
	//BEEP(10);
	timeout = 800;
	while(!(GPRS_Receive_Flag & 1<<7) && timeout--)
    116c:	80 91 a5 01 	lds	r24, 0x01A5
    1170:	87 fd       	sbrc	r24, 7
    1172:	31 c1       	rjmp	.+610    	; 0x13d6 <__stack+0x2d7>
    1174:	80 e2       	ldi	r24, 0x20	; 32
    1176:	ef ef       	ldi	r30, 0xFF	; 255
    1178:	fb e6       	ldi	r31, 0x6B	; 107
    117a:	31 97       	sbiw	r30, 0x01	; 1
    117c:	f1 f7       	brne	.-4      	; 0x117a <__stack+0x7b>
    117e:	00 c0       	rjmp	.+0      	; 0x1180 <__stack+0x81>
    1180:	00 00       	nop
    1182:	90 91 a5 01 	lds	r25, 0x01A5
    1186:	97 fd       	sbrc	r25, 7
    1188:	26 c1       	rjmp	.+588    	; 0x13d6 <__stack+0x2d7>
    118a:	81 50       	subi	r24, 0x01	; 1
    118c:	a1 f7       	brne	.-24     	; 0x1176 <__stack+0x77>
    118e:	73 c1       	rjmp	.+742    	; 0x1476 <__stack+0x377>
{
	unsigned char n = 2,i;
	unsigned int timeout;//超时操作
	while(n--)
	{
		memset(GPRS_Receive,0,100);
    1190:	f6 01       	movw	r30, r12
    1192:	28 2d       	mov	r18, r8
    1194:	11 92       	st	Z+, r1
    1196:	2a 95       	dec	r18
    1198:	e9 f7       	brne	.-6      	; 0x1194 <__stack+0x95>
		timeout = 0xFFFF;
		GPRS_Receive_Flag = 0;
    119a:	10 92 a6 01 	sts	0x01A6, r1
    119e:	10 92 a5 01 	sts	0x01A5, r1
		USART1_Transmit_String(cmd);
    11a2:	ce 01       	movw	r24, r28
    11a4:	01 96       	adiw	r24, 0x01	; 1
    11a6:	0e 94 5b 15 	call	0x2ab6	; 0x2ab6 <USART1_Transmit_String>
		while((!(GPRS_Receive_Flag &((0x1<<4)|(0x1<<1)|(0x1<<3)|((0x1<<6)))))&& (timeout --))
    11aa:	20 91 a5 01 	lds	r18, 0x01A5
    11ae:	30 91 a6 01 	lds	r19, 0x01A6
    11b2:	c9 01       	movw	r24, r18
    11b4:	8a 75       	andi	r24, 0x5A	; 90
    11b6:	99 27       	eor	r25, r25
    11b8:	89 2b       	or	r24, r25
    11ba:	89 f4       	brne	.+34     	; 0x11de <__stack+0xdf>
    11bc:	86 2d       	mov	r24, r6
    11be:	97 2d       	mov	r25, r7
	#else
		//round up by default
		__ticks_dc = (uint32_t)(ceil(fabs(__tmp)));
	#endif

	__builtin_avr_delay_cycles(__ticks_dc);
    11c0:	e5 e2       	ldi	r30, 0x25	; 37
    11c2:	ea 95       	dec	r30
    11c4:	f1 f7       	brne	.-4      	; 0x11c2 <__stack+0xc3>
    11c6:	20 91 a5 01 	lds	r18, 0x01A5
    11ca:	30 91 a6 01 	lds	r19, 0x01A6
    11ce:	a9 01       	movw	r20, r18
    11d0:	4a 75       	andi	r20, 0x5A	; 90
    11d2:	55 27       	eor	r21, r21
    11d4:	45 2b       	or	r20, r21
    11d6:	19 f4       	brne	.+6      	; 0x11de <__stack+0xdf>
    11d8:	01 97       	sbiw	r24, 0x01	; 1
    11da:	00 97       	sbiw	r24, 0x00	; 0
    11dc:	89 f7       	brne	.-30     	; 0x11c0 <__stack+0xc1>
			_delay_us(10);
		if(GPRS_Receive_Flag&(0x1<<4))
    11de:	24 fd       	sbrc	r18, 4
    11e0:	25 c0       	rjmp	.+74     	; 0x122c <__stack+0x12d>
		{
			return 0;
		}

		if(	LCD_Ico &(0x01 << 6) )
    11e2:	80 91 8b 04 	lds	r24, 0x048B
    11e6:	86 fd       	sbrc	r24, 6
    11e8:	21 c0       	rjmp	.+66     	; 0x122c <__stack+0x12d>
		{
			return 0 ;
		}
		if(SCQ != 0)
    11ea:	80 91 8c 04 	lds	r24, 0x048C
    11ee:	81 11       	cpse	r24, r1
    11f0:	1d c0       	rjmp	.+58     	; 0x122c <__stack+0x12d>
		{
			return 0;
		}
		if(GPRS_Receive_Flag&(0x1<<3))
    11f2:	23 fd       	sbrc	r18, 3
    11f4:	1b c0       	rjmp	.+54     	; 0x122c <__stack+0x12d>
		{
			return 0 ;
		}
		if(GPRS_Receive_Flag&(0x01<<9))
    11f6:	31 ff       	sbrs	r19, 1
    11f8:	09 c0       	rjmp	.+18     	; 0x120c <__stack+0x10d>
	#else
		//round up by default
		__ticks_dc = (uint32_t)(ceil(fabs(__tmp)));
	#endif

	__builtin_avr_delay_cycles(__ticks_dc);
    11fa:	ff ef       	ldi	r31, 0xFF	; 255
    11fc:	2f e3       	ldi	r18, 0x3F	; 63
    11fe:	85 e6       	ldi	r24, 0x65	; 101
    1200:	f1 50       	subi	r31, 0x01	; 1
    1202:	20 40       	sbci	r18, 0x00	; 0
    1204:	80 40       	sbci	r24, 0x00	; 0
    1206:	e1 f7       	brne	.-8      	; 0x1200 <__stack+0x101>
    1208:	00 c0       	rjmp	.+0      	; 0x120a <__stack+0x10b>
    120a:	00 00       	nop
		{
			_delay_ms(3000);
		}
		if(GPRS_Receive_Flag&(0x01<<1))
    120c:	80 91 a5 01 	lds	r24, 0x01A5
    1210:	81 ff       	sbrs	r24, 1
    1212:	09 c0       	rjmp	.+18     	; 0x1226 <__stack+0x127>
    1214:	9f ef       	ldi	r25, 0xFF	; 255
    1216:	ef e1       	ldi	r30, 0x1F	; 31
    1218:	fa e0       	ldi	r31, 0x0A	; 10
    121a:	91 50       	subi	r25, 0x01	; 1
    121c:	e0 40       	sbci	r30, 0x00	; 0
    121e:	f0 40       	sbci	r31, 0x00	; 0
    1220:	e1 f7       	brne	.-8      	; 0x121a <__stack+0x11b>
    1222:	00 c0       	rjmp	.+0      	; 0x1224 <__stack+0x125>
    1224:	00 00       	nop
    1226:	aa 94       	dec	r10
}
inline unsigned char GPRS_Send_Cmd(unsigned char *cmd)
{
	unsigned char n = 2,i;
	unsigned int timeout;//超时操作
	while(n--)
    1228:	09 f0       	breq	.+2      	; 0x122c <__stack+0x12d>
    122a:	b2 cf       	rjmp	.-156    	; 0x1190 <__stack+0x91>
			{
				unsigned char timeout = 500;
				while(!(GPRS_Receive_Flag & 1<<3) & timeout --)
				_delay_ms(10);
		
				USART1_Transmit_nChar(Send_Data,Send_Len);
    122c:	6b 2d       	mov	r22, r11
    122e:	c8 01       	movw	r24, r16
    1230:	0e 94 70 15 	call	0x2ae0	; 0x2ae0 <USART1_Transmit_nChar>
				timeout	= 1000;
				while (!(GPRS_Receive_Flag & 1<<2) && timeout --)
    1234:	80 91 a5 01 	lds	r24, 0x01A5
    1238:	82 fd       	sbrc	r24, 2
    123a:	11 c0       	rjmp	.+34     	; 0x125e <__stack+0x15f>
    123c:	85 2d       	mov	r24, r5
    123e:	ef ef       	ldi	r30, 0xFF	; 255
    1240:	fb e6       	ldi	r31, 0x6B	; 107
    1242:	31 97       	sbiw	r30, 0x01	; 1
    1244:	f1 f7       	brne	.-4      	; 0x1242 <__stack+0x143>
    1246:	00 c0       	rjmp	.+0      	; 0x1248 <__stack+0x149>
    1248:	00 00       	nop
    124a:	90 91 a5 01 	lds	r25, 0x01A5
    124e:	92 fd       	sbrc	r25, 2
    1250:	06 c0       	rjmp	.+12     	; 0x125e <__stack+0x15f>
    1252:	81 50       	subi	r24, 0x01	; 1
    1254:	a1 f7       	brne	.-24     	; 0x123e <__stack+0x13f>
    1256:	9a 94       	dec	r9
		Str_Add_Str(sendcipsend,11,send_len,2);
		Str_Add_Str(sendcipsend,13,"\r\n",2);
	
		//USART0_Transmit_String(sendcipsend);
		unsigned char i = 2;
		while(i--)
    1258:	11 f0       	breq	.+4      	; 0x125e <__stack+0x15f>
	}
	
	
	//BEEP(10);
	timeout = 800;
	while(!(GPRS_Receive_Flag & 1<<7) && timeout--)
    125a:	a4 2c       	mov	r10, r4
    125c:	99 cf       	rjmp	.-206    	; 0x1190 <__stack+0x91>
				}
			}
		}
		//			数据的总长度	数据长度
		unsigned char len = 0,revice_len = 0;
		unsigned char len_tmp[4] = {0};
    125e:	18 8a       	std	Y+16, r1	; 0x10
    1260:	19 8a       	std	Y+17, r1	; 0x11
    1262:	1a 8a       	std	Y+18, r1	; 0x12
    1264:	1b 8a       	std	Y+19, r1	; 0x13
			
//2B 43 49 50 52 43 56 3A 32 32 2C BB 66 66 80 00 12 41 31 31 31 31 31 31 33 00 09 00 10 18 35 FC FF 
		Str_Add_Str(len_tmp,0,&GPRS_Receive[8],2);
    1266:	22 e0       	ldi	r18, 0x02	; 2
    1268:	45 e2       	ldi	r20, 0x25	; 37
    126a:	55 e0       	ldi	r21, 0x05	; 5
    126c:	60 e0       	ldi	r22, 0x00	; 0
    126e:	ce 01       	movw	r24, r28
    1270:	40 96       	adiw	r24, 0x10	; 16
    1272:	0e 94 23 0f 	call	0x1e46	; 0x1e46 <Str_Add_Str>
		len = atoi(len_tmp);
    1276:	ce 01       	movw	r24, r28
    1278:	40 96       	adiw	r24, 0x10	; 16
    127a:	0e 94 39 17 	call	0x2e72	; 0x2e72 <atoi>
    127e:	8c 01       	movw	r16, r24
    1280:	78 2e       	mov	r7, r24
		if((revice_len == len) > 20)
		{	
			//BEEP(10);
			//LEDON;
		}
		Str_Add_Str(Rece_Data,0,&(GPRS_Receive[11]),len);
    1282:	28 2f       	mov	r18, r24
    1284:	48 e2       	ldi	r20, 0x28	; 40
    1286:	55 e0       	ldi	r21, 0x05	; 5
    1288:	60 e0       	ldi	r22, 0x00	; 0
    128a:	c7 01       	movw	r24, r14
    128c:	0e 94 23 0f 	call	0x1e46	; 0x1e46 <Str_Add_Str>
    1290:	ff ef       	ldi	r31, 0xFF	; 255
    1292:	2f e1       	ldi	r18, 0x1F	; 31
    1294:	8a e0       	ldi	r24, 0x0A	; 10
    1296:	f1 50       	subi	r31, 0x01	; 1
    1298:	20 40       	sbci	r18, 0x00	; 0
    129a:	80 40       	sbci	r24, 0x00	; 0
    129c:	e1 f7       	brne	.-8      	; 0x1296 <__stack+0x197>
    129e:	00 c0       	rjmp	.+0      	; 0x12a0 <__stack+0x1a1>
    12a0:	00 00       	nop
    12a2:	68 94       	set
    12a4:	bb 24       	eor	r11, r11
    12a6:	b1 f8       	bld	r11, 1
{
	unsigned char n = 2,i;
	unsigned int timeout;//超时操作
	while(n--)
	{
		memset(GPRS_Receive,0,100);
    12a8:	0f 2e       	mov	r0, r31
    12aa:	fd e1       	ldi	r31, 0x1D	; 29
    12ac:	cf 2e       	mov	r12, r31
    12ae:	f5 e0       	ldi	r31, 0x05	; 5
    12b0:	df 2e       	mov	r13, r31
    12b2:	f0 2d       	mov	r31, r0
    12b4:	0f 2e       	mov	r0, r31
    12b6:	f4 e6       	ldi	r31, 0x64	; 100
    12b8:	8f 2e       	mov	r8, r31
    12ba:	f0 2d       	mov	r31, r0
		timeout = 0xFFFF;
		GPRS_Receive_Flag = 0;
		USART1_Transmit_String(cmd);
		while((!(GPRS_Receive_Flag &((0x1<<4)|(0x1<<1)|(0x1<<3)|((0x1<<6)))))&& (timeout --))
    12bc:	99 24       	eor	r9, r9
    12be:	9a 94       	dec	r9
    12c0:	aa 24       	eor	r10, r10
    12c2:	aa 94       	dec	r10
{
	unsigned char n = 2,i;
	unsigned int timeout;//超时操作
	while(n--)
	{
		memset(GPRS_Receive,0,100);
    12c4:	f6 01       	movw	r30, r12
    12c6:	28 2d       	mov	r18, r8
    12c8:	11 92       	st	Z+, r1
    12ca:	2a 95       	dec	r18
    12cc:	e9 f7       	brne	.-6      	; 0x12c8 <__stack+0x1c9>
		timeout = 0xFFFF;
		GPRS_Receive_Flag = 0;
    12ce:	10 92 a6 01 	sts	0x01A6, r1
    12d2:	10 92 a5 01 	sts	0x01A5, r1
		USART1_Transmit_String(cmd);
    12d6:	80 e0       	ldi	r24, 0x00	; 0
    12d8:	91 e0       	ldi	r25, 0x01	; 1
    12da:	0e 94 5b 15 	call	0x2ab6	; 0x2ab6 <USART1_Transmit_String>
		while((!(GPRS_Receive_Flag &((0x1<<4)|(0x1<<1)|(0x1<<3)|((0x1<<6)))))&& (timeout --))
    12de:	40 91 a5 01 	lds	r20, 0x01A5
    12e2:	50 91 a6 01 	lds	r21, 0x01A6
    12e6:	ca 01       	movw	r24, r20
    12e8:	8a 75       	andi	r24, 0x5A	; 90
    12ea:	99 27       	eor	r25, r25
    12ec:	89 2b       	or	r24, r25
    12ee:	99 f4       	brne	.+38     	; 0x1316 <__stack+0x217>
    12f0:	29 2d       	mov	r18, r9
    12f2:	3a 2d       	mov	r19, r10
	#else
		//round up by default
		__ticks_dc = (uint32_t)(ceil(fabs(__tmp)));
	#endif

	__builtin_avr_delay_cycles(__ticks_dc);
    12f4:	85 e2       	ldi	r24, 0x25	; 37
    12f6:	8a 95       	dec	r24
    12f8:	f1 f7       	brne	.-4      	; 0x12f6 <__stack+0x1f7>
    12fa:	40 91 a5 01 	lds	r20, 0x01A5
    12fe:	50 91 a6 01 	lds	r21, 0x01A6
    1302:	ca 01       	movw	r24, r20
    1304:	8a 75       	andi	r24, 0x5A	; 90
    1306:	99 27       	eor	r25, r25
    1308:	89 2b       	or	r24, r25
    130a:	29 f4       	brne	.+10     	; 0x1316 <__stack+0x217>
    130c:	21 50       	subi	r18, 0x01	; 1
    130e:	31 09       	sbc	r19, r1
    1310:	21 15       	cp	r18, r1
    1312:	31 05       	cpc	r19, r1
    1314:	79 f7       	brne	.-34     	; 0x12f4 <__stack+0x1f5>
			_delay_us(10);
		if(GPRS_Receive_Flag&(0x1<<4))
    1316:	44 fd       	sbrc	r20, 4
    1318:	25 c0       	rjmp	.+74     	; 0x1364 <__stack+0x265>
		{
			return 0;
		}

		if(	LCD_Ico &(0x01 << 6) )
    131a:	80 91 8b 04 	lds	r24, 0x048B
    131e:	86 fd       	sbrc	r24, 6
    1320:	21 c0       	rjmp	.+66     	; 0x1364 <__stack+0x265>
		{
			return 0 ;
		}
		if(SCQ != 0)
    1322:	80 91 8c 04 	lds	r24, 0x048C
    1326:	81 11       	cpse	r24, r1
    1328:	1d c0       	rjmp	.+58     	; 0x1364 <__stack+0x265>
		{
			return 0;
		}
		if(GPRS_Receive_Flag&(0x1<<3))
    132a:	43 fd       	sbrc	r20, 3
    132c:	1b c0       	rjmp	.+54     	; 0x1364 <__stack+0x265>
		{
			return 0 ;
		}
		if(GPRS_Receive_Flag&(0x01<<9))
    132e:	51 ff       	sbrs	r21, 1
    1330:	09 c0       	rjmp	.+18     	; 0x1344 <__stack+0x245>
	#else
		//round up by default
		__ticks_dc = (uint32_t)(ceil(fabs(__tmp)));
	#endif

	__builtin_avr_delay_cycles(__ticks_dc);
    1332:	9f ef       	ldi	r25, 0xFF	; 255
    1334:	ef e3       	ldi	r30, 0x3F	; 63
    1336:	f5 e6       	ldi	r31, 0x65	; 101
    1338:	91 50       	subi	r25, 0x01	; 1
    133a:	e0 40       	sbci	r30, 0x00	; 0
    133c:	f0 40       	sbci	r31, 0x00	; 0
    133e:	e1 f7       	brne	.-8      	; 0x1338 <__stack+0x239>
    1340:	00 c0       	rjmp	.+0      	; 0x1342 <__stack+0x243>
    1342:	00 00       	nop
		{
			_delay_ms(3000);
		}
		if(GPRS_Receive_Flag&(0x01<<1))
    1344:	80 91 a5 01 	lds	r24, 0x01A5
    1348:	81 ff       	sbrs	r24, 1
    134a:	09 c0       	rjmp	.+18     	; 0x135e <__stack+0x25f>
    134c:	2f ef       	ldi	r18, 0xFF	; 255
    134e:	8f e1       	ldi	r24, 0x1F	; 31
    1350:	9a e0       	ldi	r25, 0x0A	; 10
    1352:	21 50       	subi	r18, 0x01	; 1
    1354:	80 40       	sbci	r24, 0x00	; 0
    1356:	90 40       	sbci	r25, 0x00	; 0
    1358:	e1 f7       	brne	.-8      	; 0x1352 <__stack+0x253>
    135a:	00 c0       	rjmp	.+0      	; 0x135c <__stack+0x25d>
    135c:	00 00       	nop
    135e:	ba 94       	dec	r11
}
inline unsigned char GPRS_Send_Cmd(unsigned char *cmd)
{
	unsigned char n = 2,i;
	unsigned int timeout;//超时操作
	while(n--)
    1360:	09 f0       	breq	.+2      	; 0x1364 <__stack+0x265>
    1362:	b0 cf       	rjmp	.-160    	; 0x12c4 <__stack+0x1c5>
				//GPRS_Send_Cmd(sendat);
				len = GPRS_Send_Data(Send_Data,Send_Len,Rece_Data);
		
				_delay_ms(300);
				GPRS_Send_Cmd(sendtcpclose);
				if(len > 20)
    1364:	e4 e1       	ldi	r30, 0x14	; 20
    1366:	e7 15       	cp	r30, r7
    1368:	90 f4       	brcc	.+36     	; 0x138e <__stack+0x28f>
				{
				//	USART0_Transmit_nChar(Rece_Data,len);
				//	LEDOFF;				
					if(Check_CRC16(Rece_Data,0,(len-4)))
    136a:	a8 01       	movw	r20, r16
    136c:	55 27       	eor	r21, r21
    136e:	44 50       	subi	r20, 0x04	; 4
    1370:	51 09       	sbc	r21, r1
    1372:	60 e0       	ldi	r22, 0x00	; 0
    1374:	70 e0       	ldi	r23, 0x00	; 0
    1376:	c7 01       	movw	r24, r14
    1378:	0e 94 04 0f 	call	0x1e08	; 0x1e08 <Check_CRC16>
    137c:	89 2b       	or	r24, r25
    137e:	49 f0       	breq	.+18     	; 0x1392 <__stack+0x293>
					{
				//		LEDON;
						BEEP(1000);//crc验证失败
    1380:	88 ee       	ldi	r24, 0xE8	; 232
    1382:	0e 94 d0 00 	call	0x1a0	; 0x1a0 <BEEP>
						return 0;
    1386:	80 e0       	ldi	r24, 0x00	; 0
    1388:	80 c0       	rjmp	.+256    	; 0x148a <__stack+0x38b>

inline unsigned char ShortTurl(unsigned char *Send_Data, unsigned int Send_Len,unsigned char *Rece_Data)
{
	//LEDON;
		
	unsigned char len = 0x0;
    138a:	80 e0       	ldi	r24, 0x00	; 0
    138c:	7e c0       	rjmp	.+252    	; 0x148a <__stack+0x38b>
		//	_delay_ms( 300);
			{
				//_delay_ms(200);
				//BEEP(10);
				//GPRS_Send_Cmd(sendat);
				len = GPRS_Send_Data(Send_Data,Send_Len,Rece_Data);
    138e:	80 2f       	mov	r24, r16
    1390:	7c c0       	rjmp	.+248    	; 0x148a <__stack+0x38b>
					{
				//		LEDON;
						BEEP(1000);//crc验证失败
						return 0;
					}
					return len;
    1392:	80 2f       	mov	r24, r16
    1394:	7a c0       	rjmp	.+244    	; 0x148a <__stack+0x38b>
    1396:	ff ef       	ldi	r31, 0xFF	; 255
    1398:	2f eb       	ldi	r18, 0xBF	; 191
    139a:	86 e0       	ldi	r24, 0x06	; 6
    139c:	f1 50       	subi	r31, 0x01	; 1
    139e:	20 40       	sbci	r18, 0x00	; 0
    13a0:	80 40       	sbci	r24, 0x00	; 0
    13a2:	e1 f7       	brne	.-8      	; 0x139c <__stack+0x29d>
    13a4:	00 c0       	rjmp	.+0      	; 0x13a6 <__stack+0x2a7>
    13a6:	00 00       	nop
    13a8:	68 94       	set
    13aa:	99 24       	eor	r9, r9
    13ac:	91 f8       	bld	r9, 1
	_delay_ms(200);
		//USART0_Transmit_String("------------TCPCONET");
	unsigned char n = 2 ,i;
	while(n--)
	{
		memset(GPRS_Receive,0,100);
    13ae:	0f 2e       	mov	r0, r31
    13b0:	fd e1       	ldi	r31, 0x1D	; 29
    13b2:	cf 2e       	mov	r12, r31
    13b4:	f5 e0       	ldi	r31, 0x05	; 5
    13b6:	df 2e       	mov	r13, r31
    13b8:	f0 2d       	mov	r31, r0
    13ba:	0f 2e       	mov	r0, r31
    13bc:	f4 e6       	ldi	r31, 0x64	; 100
    13be:	8f 2e       	mov	r8, r31
    13c0:	f0 2d       	mov	r31, r0
		_delay_ms(50);
		
//		GPRS_Send_Cmd(sendnet);
#if 1		
		USART1_Transmit_String(sendnet);
		while((!(GPRS_Receive_Flag&((0x1<<4)|(0x1<<1))))&&(timeout --))
    13c2:	77 24       	eor	r7, r7
    13c4:	7a 94       	dec	r7
		if(GPRS_Receive_Flag&(0x01<<1))
		{
			_delay_ms(500);
		}
#endif
 		if(GPRS_Receive_Flag&(0x1<<1))
    13c6:	68 94       	set
    13c8:	44 24       	eor	r4, r4
    13ca:	41 f8       	bld	r4, 1
	{
		memset(GPRS_Receive,0,100);
		timeout = 0xFFFF;
		GPRS_Receive_Flag = 0;
		USART1_Transmit_String(cmd);
		while((!(GPRS_Receive_Flag &((0x1<<4)|(0x1<<1)|(0x1<<3)|((0x1<<6)))))&& (timeout --))
    13cc:	55 24       	eor	r5, r5
    13ce:	5a 94       	dec	r5
    13d0:	66 24       	eor	r6, r6
    13d2:	6a 94       	dec	r6
    13d4:	39 ce       	rjmp	.-910    	; 0x1048 <ShortTurl+0x108>
	
	if((GPRS_Receive_Flag & 1<<7))
	{
		//	_delay_ms(200);
		//	LEDON;
			BEEP(10);//连接成功响一声10ms
    13d6:	8a e0       	ldi	r24, 0x0A	; 10
    13d8:	0e 94 d0 00 	call	0x1a0	; 0x1a0 <BEEP>
    13dc:	9f ef       	ldi	r25, 0xFF	; 255
    13de:	ef e1       	ldi	r30, 0x1F	; 31
    13e0:	fa e0       	ldi	r31, 0x0A	; 10
    13e2:	91 50       	subi	r25, 0x01	; 1
    13e4:	e0 40       	sbci	r30, 0x00	; 0
    13e6:	f0 40       	sbci	r31, 0x00	; 0
    13e8:	e1 f7       	brne	.-8      	; 0x13e2 <__stack+0x2e3>
    13ea:	00 c0       	rjmp	.+0      	; 0x13ec <__stack+0x2ed>
    13ec:	00 00       	nop
	if(!Check_CRC16(Send_Data,0,Send_Len-4))
		LEDON;
#endif

	
		unsigned char sendcipsend[15] = "AT+CIPSEND=";
    13ee:	8c e0       	ldi	r24, 0x0C	; 12
    13f0:	e7 ea       	ldi	r30, 0xA7	; 167
    13f2:	f1 e0       	ldi	r31, 0x01	; 1
    13f4:	de 01       	movw	r26, r28
    13f6:	11 96       	adiw	r26, 0x01	; 1
    13f8:	01 90       	ld	r0, Z+
    13fa:	0d 92       	st	X+, r0
    13fc:	8a 95       	dec	r24
    13fe:	e1 f7       	brne	.-8      	; 0x13f8 <__stack+0x2f9>
    1400:	1d 86       	std	Y+13, r1	; 0x0d
    1402:	1e 86       	std	Y+14, r1	; 0x0e
    1404:	1f 86       	std	Y+15, r1	; 0x0f
		unsigned char send_len[2]  = {0};
    1406:	1d 8a       	std	Y+21, r1	; 0x15
    1408:	1c 8a       	std	Y+20, r1	; 0x14
#if 1
		itoc(send_len,Send_Len);
    140a:	6b 2d       	mov	r22, r11
    140c:	7a 2d       	mov	r23, r10
    140e:	ce 01       	movw	r24, r28
    1410:	44 96       	adiw	r24, 0x14	; 20
    1412:	0e 94 50 07 	call	0xea0	; 0xea0 <itoc>
		revstr(send_len,2);
    1416:	62 e0       	ldi	r22, 0x02	; 2
    1418:	70 e0       	ldi	r23, 0x00	; 0
    141a:	ce 01       	movw	r24, r28
    141c:	44 96       	adiw	r24, 0x14	; 20
    141e:	0e 94 2b 07 	call	0xe56	; 0xe56 <revstr>
#else
		itoa(send_len,Send_Len);
#endif
		Str_Add_Str(sendcipsend,11,send_len,2);
    1422:	22 e0       	ldi	r18, 0x02	; 2
    1424:	ae 01       	movw	r20, r28
    1426:	4c 5e       	subi	r20, 0xEC	; 236
    1428:	5f 4f       	sbci	r21, 0xFF	; 255
    142a:	6b e0       	ldi	r22, 0x0B	; 11
    142c:	ce 01       	movw	r24, r28
    142e:	01 96       	adiw	r24, 0x01	; 1
    1430:	0e 94 23 0f 	call	0x1e46	; 0x1e46 <Str_Add_Str>
		Str_Add_Str(sendcipsend,13,"\r\n",2);
    1434:	22 e0       	ldi	r18, 0x02	; 2
    1436:	45 e8       	ldi	r20, 0x85	; 133
    1438:	54 e0       	ldi	r21, 0x04	; 4
    143a:	6d e0       	ldi	r22, 0x0D	; 13
    143c:	ce 01       	movw	r24, r28
    143e:	01 96       	adiw	r24, 0x01	; 1
    1440:	0e 94 23 0f 	call	0x1e46	; 0x1e46 <Str_Add_Str>
    1444:	68 94       	set
    1446:	99 24       	eor	r9, r9
    1448:	91 f8       	bld	r9, 1
	}
	
	
	//BEEP(10);
	timeout = 800;
	while(!(GPRS_Receive_Flag & 1<<7) && timeout--)
    144a:	68 94       	set
    144c:	44 24       	eor	r4, r4
    144e:	41 f8       	bld	r4, 1
{
	unsigned char n = 2,i;
	unsigned int timeout;//超时操作
	while(n--)
	{
		memset(GPRS_Receive,0,100);
    1450:	0f 2e       	mov	r0, r31
    1452:	fd e1       	ldi	r31, 0x1D	; 29
    1454:	cf 2e       	mov	r12, r31
    1456:	f5 e0       	ldi	r31, 0x05	; 5
    1458:	df 2e       	mov	r13, r31
    145a:	f0 2d       	mov	r31, r0
    145c:	0f 2e       	mov	r0, r31
    145e:	f4 e6       	ldi	r31, 0x64	; 100
    1460:	8f 2e       	mov	r8, r31
    1462:	f0 2d       	mov	r31, r0
		timeout = 0xFFFF;
		GPRS_Receive_Flag = 0;
		USART1_Transmit_String(cmd);
		while((!(GPRS_Receive_Flag &((0x1<<4)|(0x1<<1)|(0x1<<3)|((0x1<<6)))))&& (timeout --))
    1464:	66 24       	eor	r6, r6
    1466:	6a 94       	dec	r6
    1468:	77 24       	eor	r7, r7
    146a:	7a 94       	dec	r7
				while(!(GPRS_Receive_Flag & 1<<3) & timeout --)
				_delay_ms(10);
		
				USART1_Transmit_nChar(Send_Data,Send_Len);
				timeout	= 1000;
				while (!(GPRS_Receive_Flag & 1<<2) && timeout --)
    146c:	0f 2e       	mov	r0, r31
    146e:	f8 ee       	ldi	r31, 0xE8	; 232
    1470:	5f 2e       	mov	r5, r31
    1472:	f0 2d       	mov	r31, r0
    1474:	f2 ce       	rjmp	.-540    	; 0x125a <__stack+0x15b>
    1476:	2f ef       	ldi	r18, 0xFF	; 255
    1478:	8f e1       	ldi	r24, 0x1F	; 31
    147a:	9a e0       	ldi	r25, 0x0A	; 10
    147c:	21 50       	subi	r18, 0x01	; 1
    147e:	80 40       	sbci	r24, 0x00	; 0
    1480:	90 40       	sbci	r25, 0x00	; 0
    1482:	e1 f7       	brne	.-8      	; 0x147c <__stack+0x37d>
    1484:	00 c0       	rjmp	.+0      	; 0x1486 <__stack+0x387>
    1486:	00 00       	nop
    1488:	80 e0       	ldi	r24, 0x00	; 0
			}

	}
#endif 
	return len;
}
    148a:	65 96       	adiw	r28, 0x15	; 21
    148c:	0f b6       	in	r0, 0x3f	; 63
    148e:	f8 94       	cli
    1490:	de bf       	out	0x3e, r29	; 62
    1492:	0f be       	out	0x3f, r0	; 63
    1494:	cd bf       	out	0x3d, r28	; 61
    1496:	df 91       	pop	r29
    1498:	cf 91       	pop	r28
    149a:	1f 91       	pop	r17
    149c:	0f 91       	pop	r16
    149e:	ff 90       	pop	r15
    14a0:	ef 90       	pop	r14
    14a2:	df 90       	pop	r13
    14a4:	cf 90       	pop	r12
    14a6:	bf 90       	pop	r11
    14a8:	af 90       	pop	r10
    14aa:	9f 90       	pop	r9
    14ac:	8f 90       	pop	r8
    14ae:	7f 90       	pop	r7
    14b0:	6f 90       	pop	r6
    14b2:	5f 90       	pop	r5
    14b4:	4f 90       	pop	r4
    14b6:	3f 90       	pop	r3
    14b8:	08 95       	ret

000014ba <TM1726_start>:
unsigned char SMGL[10] = { 0xfa,0x60,0xbc,0xf4,0x66,0xd6,0xde,0x70,0xfe,0xf6 };//数码管转换 abcd xfge  
unsigned char LCDNUM[32];        //LCD的显示数组

static void TM1726_start(void)
{
	TM1726_SDA_1;
    14ba:	d8 9a       	sbi	0x1b, 0	; 27
	TM1726_SCL_1;
    14bc:	d9 9a       	sbi	0x1b, 1	; 27
	#else
		//round up by default
		__ticks_dc = (uint32_t)(ceil(fabs(__tmp)));
	#endif

	__builtin_avr_delay_cycles(__ticks_dc);
    14be:	85 e2       	ldi	r24, 0x25	; 37
    14c0:	8a 95       	dec	r24
    14c2:	f1 f7       	brne	.-4      	; 0x14c0 <TM1726_start+0x6>
	_delay_us(10);
	TM1726_SDA_0;
    14c4:	d8 98       	cbi	0x1b, 0	; 27
    14c6:	85 e2       	ldi	r24, 0x25	; 37
    14c8:	8a 95       	dec	r24
    14ca:	f1 f7       	brne	.-4      	; 0x14c8 <TM1726_start+0xe>
	_delay_us(10);
	TM1726_SCL_0;
    14cc:	d9 98       	cbi	0x1b, 1	; 27
    14ce:	85 e2       	ldi	r24, 0x25	; 37
    14d0:	8a 95       	dec	r24
    14d2:	f1 f7       	brne	.-4      	; 0x14d0 <TM1726_start+0x16>
    14d4:	08 95       	ret

000014d6 <TM1726_stop>:
//------------------------------------------------
//STOP TM1726
//-----------------------------------------------
static void TM1726_stop(void)
{
	TM1726_SDA_0;
    14d6:	d8 98       	cbi	0x1b, 0	; 27
	TM1726_SCL_1;
    14d8:	d9 9a       	sbi	0x1b, 1	; 27
    14da:	85 e2       	ldi	r24, 0x25	; 37
    14dc:	8a 95       	dec	r24
    14de:	f1 f7       	brne	.-4      	; 0x14dc <TM1726_stop+0x6>
	_delay_us(10);
	TM1726_SDA_1;
    14e0:	d8 9a       	sbi	0x1b, 0	; 27
    14e2:	85 e2       	ldi	r24, 0x25	; 37
    14e4:	8a 95       	dec	r24
    14e6:	f1 f7       	brne	.-4      	; 0x14e4 <TM1726_stop+0xe>
	_delay_us(10);
	TM1726_SCL_0;
    14e8:	d9 98       	cbi	0x1b, 1	; 27
    14ea:	85 e2       	ldi	r24, 0x25	; 37
    14ec:	8a 95       	dec	r24
    14ee:	f1 f7       	brne	.-4      	; 0x14ec <TM1726_stop+0x16>
    14f0:	08 95       	ret

000014f2 <WRITE_DATA_1726>:
void WRITE_DATA_1726(unsigned char wdata)
{
	unsigned char i, temp;

	temp = 0x01;  //80
	TM1726_SDA_0;
    14f2:	d8 98       	cbi	0x1b, 0	; 27
	TM1726_SCL_0;
    14f4:	d9 98       	cbi	0x1b, 1	; 27
    14f6:	24 e0       	ldi	r18, 0x04	; 4
    14f8:	2a 95       	dec	r18
    14fa:	f1 f7       	brne	.-4      	; 0x14f8 <WRITE_DATA_1726+0x6>
    14fc:	98 e0       	ldi	r25, 0x08	; 8
	_delay_us(TINGD);
	for (i = 0; i < 8; i++)
	{
		TM1726_SCL_0;
    14fe:	d9 98       	cbi	0x1b, 1	; 27
		if ((temp & wdata) == 0)
    1500:	80 fd       	sbrc	r24, 0
    1502:	02 c0       	rjmp	.+4      	; 0x1508 <WRITE_DATA_1726+0x16>
		{
			TM1726_SDA_0;
    1504:	d8 98       	cbi	0x1b, 0	; 27
    1506:	01 c0       	rjmp	.+2      	; 0x150a <WRITE_DATA_1726+0x18>
		}
		else
		{
			TM1726_SDA_1;
    1508:	d8 9a       	sbi	0x1b, 0	; 27
    150a:	24 e0       	ldi	r18, 0x04	; 4
    150c:	2a 95       	dec	r18
    150e:	f1 f7       	brne	.-4      	; 0x150c <WRITE_DATA_1726+0x1a>
		}
		_delay_us(TINGD);
		TM1726_SCL_1;				//clk = 1 for data write into 1632
    1510:	d9 9a       	sbi	0x1b, 1	; 27
		wdata >>= 1;   //>>
    1512:	86 95       	lsr	r24
    1514:	91 50       	subi	r25, 0x01	; 1

	temp = 0x01;  //80
	TM1726_SDA_0;
	TM1726_SCL_0;
	_delay_us(TINGD);
	for (i = 0; i < 8; i++)
    1516:	99 f7       	brne	.-26     	; 0x14fe <WRITE_DATA_1726+0xc>
		}
		_delay_us(TINGD);
		TM1726_SCL_1;				//clk = 1 for data write into 1632
		wdata >>= 1;   //>>
	}
	TM1726_SCL_0;
    1518:	d9 98       	cbi	0x1b, 1	; 27
	TM1726_SDA_0;
    151a:	d8 98       	cbi	0x1b, 0	; 27
    151c:	08 95       	ret

0000151e <WRITE_ALLRAM_1726>:
}
//-----------------------------------------------
//功能：填充TM1726的RAM数据
//-----------------------------------------------
void WRITE_ALLRAM_1726(unsigned char F_RAM1632_SET)
{
    151e:	cf 93       	push	r28
    1520:	df 93       	push	r29
    1522:	d8 2f       	mov	r29, r24
	unsigned char i;
	TM1726_SDA_1;
    1524:	d8 9a       	sbi	0x1b, 0	; 27
	TM1726_SCL_1;
    1526:	d9 9a       	sbi	0x1b, 1	; 27
	TM1726_start();
    1528:	0e 94 5d 0a 	call	0x14ba	; 0x14ba <TM1726_start>
    152c:	84 e0       	ldi	r24, 0x04	; 4
    152e:	8a 95       	dec	r24
    1530:	f1 f7       	brne	.-4      	; 0x152e <WRITE_ALLRAM_1726+0x10>
	_delay_us(TINGD);
	WRITE_DATA_1726(0xc0);//要写的地址
    1532:	80 ec       	ldi	r24, 0xC0	; 192
    1534:	0e 94 79 0a 	call	0x14f2	; 0x14f2 <WRITE_DATA_1726>
    1538:	c2 e1       	ldi	r28, 0x12	; 18
	for (i = 0; i < 18; i++)
	{
		TM1726_SDA_1;
    153a:	d8 9a       	sbi	0x1b, 0	; 27
		TM1726_SCL_1;
    153c:	d9 9a       	sbi	0x1b, 1	; 27
		if (F_RAM1632_SET)
    153e:	dd 23       	and	r29, r29
    1540:	21 f0       	breq	.+8      	; 0x154a <WRITE_ALLRAM_1726+0x2c>
		{
			WRITE_DATA_1726(0xff);
    1542:	8f ef       	ldi	r24, 0xFF	; 255
    1544:	0e 94 79 0a 	call	0x14f2	; 0x14f2 <WRITE_DATA_1726>
    1548:	03 c0       	rjmp	.+6      	; 0x1550 <WRITE_ALLRAM_1726+0x32>
		}	//all RAM write 1
		else
		{
			WRITE_DATA_1726(0x00);
    154a:	80 e0       	ldi	r24, 0x00	; 0
    154c:	0e 94 79 0a 	call	0x14f2	; 0x14f2 <WRITE_DATA_1726>
    1550:	c1 50       	subi	r28, 0x01	; 1
	TM1726_SDA_1;
	TM1726_SCL_1;
	TM1726_start();
	_delay_us(TINGD);
	WRITE_DATA_1726(0xc0);//要写的地址
	for (i = 0; i < 18; i++)
    1552:	99 f7       	brne	.-26     	; 0x153a <WRITE_ALLRAM_1726+0x1c>
		else
		{
			WRITE_DATA_1726(0x00);
		}	//all RAM write 0
	}
	TM1726_stop();
    1554:	0e 94 6b 0a 	call	0x14d6	; 0x14d6 <TM1726_stop>
}
    1558:	df 91       	pop	r29
    155a:	cf 91       	pop	r28
    155c:	08 95       	ret

0000155e <REFRESH_ALLRAM_1726>:
//-----------------------------------------------
//功能：更新HT1632C的RAM数据
//-----------------------------------------------
void REFRESH_ALLRAM_1726(void)
{
    155e:	0f 93       	push	r16
    1560:	1f 93       	push	r17
    1562:	cf 93       	push	r28
    1564:	df 93       	push	r29
	unsigned char i;
	TM1726_SDA_1;
    1566:	d8 9a       	sbi	0x1b, 0	; 27
	TM1726_SCL_1;
    1568:	d9 9a       	sbi	0x1b, 1	; 27
	TM1726_start();
    156a:	0e 94 5d 0a 	call	0x14ba	; 0x14ba <TM1726_start>
    156e:	84 e0       	ldi	r24, 0x04	; 4
    1570:	8a 95       	dec	r24
    1572:	f1 f7       	brne	.-4      	; 0x1570 <REFRESH_ALLRAM_1726+0x12>
	_delay_us(TINGD);
	WRITE_DATA_1726(0xc0);
    1574:	80 ec       	ldi	r24, 0xC0	; 192
    1576:	0e 94 79 0a 	call	0x14f2	; 0x14f2 <WRITE_DATA_1726>
    157a:	c0 ec       	ldi	r28, 0xC0	; 192
    157c:	d4 e0       	ldi	r29, 0x04	; 4
    157e:	02 ed       	ldi	r16, 0xD2	; 210
    1580:	14 e0       	ldi	r17, 0x04	; 4
	// all RAM have 96
	for (i = 0; i < 18; i++)
	{
		TM1726_SDA_1;
    1582:	d8 9a       	sbi	0x1b, 0	; 27
		TM1726_SCL_1;
    1584:	d9 9a       	sbi	0x1b, 1	; 27
		WRITE_DATA_1726(LCDNUM[i]);
    1586:	89 91       	ld	r24, Y+
    1588:	0e 94 79 0a 	call	0x14f2	; 0x14f2 <WRITE_DATA_1726>
	TM1726_SCL_1;
	TM1726_start();
	_delay_us(TINGD);
	WRITE_DATA_1726(0xc0);
	// all RAM have 96
	for (i = 0; i < 18; i++)
    158c:	c0 17       	cp	r28, r16
    158e:	d1 07       	cpc	r29, r17
    1590:	c1 f7       	brne	.-16     	; 0x1582 <REFRESH_ALLRAM_1726+0x24>
	{
		TM1726_SDA_1;
		TM1726_SCL_1;
		WRITE_DATA_1726(LCDNUM[i]);
	}
	TM1726_stop();
    1592:	0e 94 6b 0a 	call	0x14d6	; 0x14d6 <TM1726_stop>
}
    1596:	df 91       	pop	r29
    1598:	cf 91       	pop	r28
    159a:	1f 91       	pop	r17
    159c:	0f 91       	pop	r16
    159e:	08 95       	ret

000015a0 <INIT_1726>:

	

void INIT_1726(void)
{
	TM1726_SDA_1;
    15a0:	d8 9a       	sbi	0x1b, 0	; 27
	TM1726_SCL_1;
    15a2:	d9 9a       	sbi	0x1b, 1	; 27
	TM1726_start();
    15a4:	0e 94 5d 0a 	call	0x14ba	; 0x14ba <TM1726_start>
    15a8:	84 e0       	ldi	r24, 0x04	; 4
    15aa:	8a 95       	dec	r24
    15ac:	f1 f7       	brne	.-4      	; 0x15aa <INIT_1726+0xa>
	_delay_us(TINGD);
	WRITE_DATA_1726(0x37);//27
    15ae:	87 e3       	ldi	r24, 0x37	; 55
    15b0:	0e 94 79 0a 	call	0x14f2	; 0x14f2 <WRITE_DATA_1726>
	TM1726_stop();
    15b4:	0e 94 6b 0a 	call	0x14d6	; 0x14d6 <TM1726_stop>
    15b8:	08 95       	ret

000015ba <WRITE_1DATA_1726>:
}
//-----------------------------------------------
//功能：填充TM1726的固定地址和固定数据
//-----------------------------------------------
void WRITE_1DATA_1726(unsigned char addr, unsigned char dat1)
{
    15ba:	cf 93       	push	r28
    15bc:	df 93       	push	r29
    15be:	d8 2f       	mov	r29, r24
    15c0:	c6 2f       	mov	r28, r22
	TM1726_SDA_1;
    15c2:	d8 9a       	sbi	0x1b, 0	; 27
	TM1726_SCL_1;
    15c4:	d9 9a       	sbi	0x1b, 1	; 27
	TM1726_start();
    15c6:	0e 94 5d 0a 	call	0x14ba	; 0x14ba <TM1726_start>
	#else
		//round up by default
		__ticks_dc = (uint32_t)(ceil(fabs(__tmp)));
	#endif

	__builtin_avr_delay_cycles(__ticks_dc);
    15ca:	8f ef       	ldi	r24, 0xFF	; 255
    15cc:	9b e6       	ldi	r25, 0x6B	; 107
    15ce:	01 97       	sbiw	r24, 0x01	; 1
    15d0:	f1 f7       	brne	.-4      	; 0x15ce <WRITE_1DATA_1726+0x14>
    15d2:	00 c0       	rjmp	.+0      	; 0x15d4 <WRITE_1DATA_1726+0x1a>
    15d4:	00 00       	nop
	_delay_ms(10);
	WRITE_DATA_1726(0xc0 + addr);//
    15d6:	80 ec       	ldi	r24, 0xC0	; 192
    15d8:	8d 0f       	add	r24, r29
    15da:	0e 94 79 0a 	call	0x14f2	; 0x14f2 <WRITE_DATA_1726>
	TM1726_SDA_1;
    15de:	d8 9a       	sbi	0x1b, 0	; 27
	TM1726_SCL_1;
    15e0:	d9 9a       	sbi	0x1b, 1	; 27
    15e2:	8f ef       	ldi	r24, 0xFF	; 255
    15e4:	9b e6       	ldi	r25, 0x6B	; 107
    15e6:	01 97       	sbiw	r24, 0x01	; 1
    15e8:	f1 f7       	brne	.-4      	; 0x15e6 <WRITE_1DATA_1726+0x2c>
    15ea:	00 c0       	rjmp	.+0      	; 0x15ec <WRITE_1DATA_1726+0x32>
    15ec:	00 00       	nop
	_delay_ms(10);
	WRITE_DATA_1726(dat1);
    15ee:	8c 2f       	mov	r24, r28
    15f0:	0e 94 79 0a 	call	0x14f2	; 0x14f2 <WRITE_DATA_1726>
	TM1726_stop();
    15f4:	0e 94 6b 0a 	call	0x14d6	; 0x14d6 <TM1726_stop>

}
    15f8:	df 91       	pop	r29
    15fa:	cf 91       	pop	r28
    15fc:	08 95       	ret

000015fe <signal_ico>:
	if(loop>5) 
		loop = 0;
}
void signal_ico(void)
{
	if((LCD_Ico & 0x01<<7))
    15fe:	80 91 8b 04 	lds	r24, 0x048B
    1602:	88 23       	and	r24, r24
    1604:	34 f4       	brge	.+12     	; 0x1612 <signal_ico+0x14>
		LCDNUM[1]|=0x01;//信号
    1606:	e1 ec       	ldi	r30, 0xC1	; 193
    1608:	f4 e0       	ldi	r31, 0x04	; 4
    160a:	80 81       	ld	r24, Z
    160c:	81 60       	ori	r24, 0x01	; 1
    160e:	80 83       	st	Z, r24
    1610:	08 95       	ret
	else
		LCDNUM[1]&=(~0x01);
    1612:	e1 ec       	ldi	r30, 0xC1	; 193
    1614:	f4 e0       	ldi	r31, 0x04	; 4
    1616:	80 81       	ld	r24, Z
    1618:	8e 7f       	andi	r24, 0xFE	; 254
    161a:	80 83       	st	Z, r24
    161c:	08 95       	ret

0000161e <hydropenia_ico>:
}
void hydropenia_ico( void )
{
	if(LCD_Ico&(0x1<<4))
    161e:	80 91 8b 04 	lds	r24, 0x048B
    1622:	84 ff       	sbrs	r24, 4
    1624:	06 c0       	rjmp	.+12     	; 0x1632 <hydropenia_ico+0x14>
		LCDNUM[14]|= 0x10;//缺水
    1626:	ee ec       	ldi	r30, 0xCE	; 206
    1628:	f4 e0       	ldi	r31, 0x04	; 4
    162a:	80 81       	ld	r24, Z
    162c:	80 61       	ori	r24, 0x10	; 16
    162e:	80 83       	st	Z, r24
    1630:	08 95       	ret
	else
		LCDNUM[14]&= (~0x10);
    1632:	ee ec       	ldi	r30, 0xCE	; 206
    1634:	f4 e0       	ldi	r31, 0x04	; 4
    1636:	80 81       	ld	r24, Z
    1638:	8f 7e       	andi	r24, 0xEF	; 239
    163a:	80 83       	st	Z, r24
    163c:	08 95       	ret

0000163e <leakage_ico>:
}
void leakage_ico( void )
{
	if(LCD_Ico&(0x1<<5))//漏水
    163e:	80 91 8b 04 	lds	r24, 0x048B
    1642:	85 ff       	sbrs	r24, 5
    1644:	06 c0       	rjmp	.+12     	; 0x1652 <leakage_ico+0x14>
		LCDNUM[13]|=0x10;
    1646:	ed ec       	ldi	r30, 0xCD	; 205
    1648:	f4 e0       	ldi	r31, 0x04	; 4
    164a:	80 81       	ld	r24, Z
    164c:	80 61       	ori	r24, 0x10	; 16
    164e:	80 83       	st	Z, r24
    1650:	08 95       	ret
	else
		LCDNUM[13]&=(~0x10);
    1652:	ed ec       	ldi	r30, 0xCD	; 205
    1654:	f4 e0       	ldi	r31, 0x04	; 4
    1656:	80 81       	ld	r24, Z
    1658:	8f 7e       	andi	r24, 0xEF	; 239
    165a:	80 83       	st	Z, r24
    165c:	08 95       	ret

0000165e <pure_water_ico>:
}
void pure_water_ico(void)
{
	if(LCD_Ico&(0x1<<3))
    165e:	80 91 8b 04 	lds	r24, 0x048B
    1662:	83 ff       	sbrs	r24, 3
    1664:	06 c0       	rjmp	.+12     	; 0x1672 <pure_water_ico+0x14>
		LCDNUM[10]|= 0x10;//纯水
    1666:	ea ec       	ldi	r30, 0xCA	; 202
    1668:	f4 e0       	ldi	r31, 0x04	; 4
    166a:	80 81       	ld	r24, Z
    166c:	80 61       	ori	r24, 0x10	; 16
    166e:	80 83       	st	Z, r24
    1670:	08 95       	ret
	else
		LCDNUM[10]&= (~0x10);
    1672:	ea ec       	ldi	r30, 0xCA	; 202
    1674:	f4 e0       	ldi	r31, 0x04	; 4
    1676:	80 81       	ld	r24, Z
    1678:	8f 7e       	andi	r24, 0xEF	; 239
    167a:	80 83       	st	Z, r24
    167c:	08 95       	ret

0000167e <raw_water_ico>:
}
void raw_water_ico(void)
{
	if(LCD_Ico&(0x1<<2))
    167e:	80 91 8b 04 	lds	r24, 0x048B
    1682:	82 ff       	sbrs	r24, 2
    1684:	06 c0       	rjmp	.+12     	; 0x1692 <raw_water_ico+0x14>
		LCDNUM[17]|=0x10;//原水
    1686:	e1 ed       	ldi	r30, 0xD1	; 209
    1688:	f4 e0       	ldi	r31, 0x04	; 4
    168a:	80 81       	ld	r24, Z
    168c:	80 61       	ori	r24, 0x10	; 16
    168e:	80 83       	st	Z, r24
    1690:	08 95       	ret
	else
		LCDNUM[17]&=(~0x10);
    1692:	e1 ed       	ldi	r30, 0xD1	; 209
    1694:	f4 e0       	ldi	r31, 0x04	; 4
    1696:	80 81       	ld	r24, Z
    1698:	8f 7e       	andi	r24, 0xEF	; 239
    169a:	80 83       	st	Z, r24
    169c:	08 95       	ret

0000169e <flow_ico>:
}
void flow_ico(void)
{
	if(LCD_Ico&(0x1<<1))
    169e:	80 91 8b 04 	lds	r24, 0x048B
    16a2:	81 ff       	sbrs	r24, 1
    16a4:	06 c0       	rjmp	.+12     	; 0x16b2 <flow_ico+0x14>
	LCDNUM[8]|=0x01;//流量
    16a6:	e8 ec       	ldi	r30, 0xC8	; 200
    16a8:	f4 e0       	ldi	r31, 0x04	; 4
    16aa:	80 81       	ld	r24, Z
    16ac:	81 60       	ori	r24, 0x01	; 1
    16ae:	80 83       	st	Z, r24
    16b0:	08 95       	ret
	else
	LCDNUM[8]&=(~0x01);
    16b2:	e8 ec       	ldi	r30, 0xC8	; 200
    16b4:	f4 e0       	ldi	r31, 0x04	; 4
    16b6:	80 81       	ld	r24, Z
    16b8:	8e 7f       	andi	r24, 0xFE	; 254
    16ba:	80 83       	st	Z, r24
    16bc:	08 95       	ret

000016be <time_ico>:
}
void time_ico(void)
{
	if(LCD_Ico&(0x1<<0))
    16be:	80 91 8b 04 	lds	r24, 0x048B
    16c2:	80 ff       	sbrs	r24, 0
    16c4:	06 c0       	rjmp	.+12     	; 0x16d2 <time_ico+0x14>
		LCDNUM[0]|=0x01;//time
    16c6:	e0 ec       	ldi	r30, 0xC0	; 192
    16c8:	f4 e0       	ldi	r31, 0x04	; 4
    16ca:	80 81       	ld	r24, Z
    16cc:	81 60       	ori	r24, 0x01	; 1
    16ce:	80 83       	st	Z, r24
    16d0:	08 95       	ret
	else
		LCDNUM[0]&=(~0x01);
    16d2:	e0 ec       	ldi	r30, 0xC0	; 192
    16d4:	f4 e0       	ldi	r31, 0x04	; 4
    16d6:	80 81       	ld	r24, Z
    16d8:	8e 7f       	andi	r24, 0xFE	; 254
    16da:	80 83       	st	Z, r24
    16dc:	08 95       	ret

000016de <null_ico>:
}
void null_ico(void)
{
	if(LCD_Ico&(0x1<<7))
    16de:	80 91 8b 04 	lds	r24, 0x048B
    16e2:	88 23       	and	r24, r24
    16e4:	34 f4       	brge	.+12     	; 0x16f2 <null_ico+0x14>
		LCDNUM[9]|=0x01;
    16e6:	e9 ec       	ldi	r30, 0xC9	; 201
    16e8:	f4 e0       	ldi	r31, 0x04	; 4
    16ea:	80 81       	ld	r24, Z
    16ec:	81 60       	ori	r24, 0x01	; 1
    16ee:	80 83       	st	Z, r24
    16f0:	08 95       	ret
	else
		LCDNUM[9]&=(~0x01);
    16f2:	e9 ec       	ldi	r30, 0xC9	; 201
    16f4:	f4 e0       	ldi	r31, 0x04	; 4
    16f6:	80 81       	ld	r24, Z
    16f8:	8e 7f       	andi	r24, 0xFE	; 254
    16fa:	80 83       	st	Z, r24
    16fc:	08 95       	ret

000016fe <signal>:
}
void signal(void)
{
	//LCDNUM[2]&=(~0x01);
	if(!(LCD_Ico & 0x01<<7))
    16fe:	80 91 8b 04 	lds	r24, 0x048B
    1702:	88 23       	and	r24, r24
    1704:	24 f0       	brlt	.+8      	; 0x170e <signal+0x10>
	SCQ = 0;
    1706:	10 92 8c 04 	sts	0x048C, r1
	if(SCQ > 0 )
    170a:	80 e0       	ldi	r24, 0x00	; 0
    170c:	0c c0       	rjmp	.+24     	; 0x1726 <signal+0x28>
    170e:	80 91 8c 04 	lds	r24, 0x048C
    1712:	88 23       	and	r24, r24
    1714:	41 f0       	breq	.+16     	; 0x1726 <signal+0x28>
		LCDNUM[2]|=0x01;//信号1
    1716:	e2 ec       	ldi	r30, 0xC2	; 194
    1718:	f4 e0       	ldi	r31, 0x04	; 4
    171a:	90 81       	ld	r25, Z
    171c:	91 60       	ori	r25, 0x01	; 1
    171e:	90 83       	st	Z, r25
	else 
		LCDNUM[2]&=(~0x01);//信号1
	if(SCQ > 8)
    1720:	89 30       	cpi	r24, 0x09	; 9
    1722:	38 f4       	brcc	.+14     	; 0x1732 <signal+0x34>
    1724:	0c c0       	rjmp	.+24     	; 0x173e <signal+0x40>
	if(!(LCD_Ico & 0x01<<7))
	SCQ = 0;
	if(SCQ > 0 )
		LCDNUM[2]|=0x01;//信号1
	else 
		LCDNUM[2]&=(~0x01);//信号1
    1726:	e2 ec       	ldi	r30, 0xC2	; 194
    1728:	f4 e0       	ldi	r31, 0x04	; 4
    172a:	90 81       	ld	r25, Z
    172c:	9e 7f       	andi	r25, 0xFE	; 254
    172e:	90 83       	st	Z, r25
    1730:	06 c0       	rjmp	.+12     	; 0x173e <signal+0x40>
	if(SCQ > 8)
		LCDNUM[3]|=0x01;//信号2
    1732:	e3 ec       	ldi	r30, 0xC3	; 195
    1734:	f4 e0       	ldi	r31, 0x04	; 4
    1736:	90 81       	ld	r25, Z
    1738:	91 60       	ori	r25, 0x01	; 1
    173a:	90 83       	st	Z, r25
    173c:	05 c0       	rjmp	.+10     	; 0x1748 <signal+0x4a>
	else 
		LCDNUM[3]&=(~0x01);//信号2
    173e:	e3 ec       	ldi	r30, 0xC3	; 195
    1740:	f4 e0       	ldi	r31, 0x04	; 4
    1742:	90 81       	ld	r25, Z
    1744:	9e 7f       	andi	r25, 0xFE	; 254
    1746:	90 83       	st	Z, r25
	if(SCQ > 16)
    1748:	81 31       	cpi	r24, 0x11	; 17
    174a:	30 f0       	brcs	.+12     	; 0x1758 <signal+0x5a>
		LCDNUM[4]|=0x01;//信号3
    174c:	e4 ec       	ldi	r30, 0xC4	; 196
    174e:	f4 e0       	ldi	r31, 0x04	; 4
    1750:	90 81       	ld	r25, Z
    1752:	91 60       	ori	r25, 0x01	; 1
    1754:	90 83       	st	Z, r25
    1756:	05 c0       	rjmp	.+10     	; 0x1762 <signal+0x64>
	else 
		LCDNUM[4]&=(~0x01);//信号3
    1758:	e4 ec       	ldi	r30, 0xC4	; 196
    175a:	f4 e0       	ldi	r31, 0x04	; 4
    175c:	90 81       	ld	r25, Z
    175e:	9e 7f       	andi	r25, 0xFE	; 254
    1760:	90 83       	st	Z, r25
	if(SCQ > 24)
    1762:	89 31       	cpi	r24, 0x19	; 25
    1764:	30 f0       	brcs	.+12     	; 0x1772 <signal+0x74>
		LCDNUM[5]|=0x01;//信号4
    1766:	e5 ec       	ldi	r30, 0xC5	; 197
    1768:	f4 e0       	ldi	r31, 0x04	; 4
    176a:	80 81       	ld	r24, Z
    176c:	81 60       	ori	r24, 0x01	; 1
    176e:	80 83       	st	Z, r24
    1770:	08 95       	ret
	else 
		LCDNUM[5]&=(~0x01);//信号4
    1772:	e5 ec       	ldi	r30, 0xC5	; 197
    1774:	f4 e0       	ldi	r31, 0x04	; 4
    1776:	80 81       	ld	r24, Z
    1778:	8e 7f       	andi	r24, 0xFE	; 254
    177a:	80 83       	st	Z, r24
    177c:	08 95       	ret

0000177e <ico>:
	//Write_addr_data(2,4,&LCDNUM[2]);
}
void ico(void)
{
	signal_ico();
    177e:	0e 94 ff 0a 	call	0x15fe	; 0x15fe <signal_ico>
	hydropenia_ico();
    1782:	0e 94 0f 0b 	call	0x161e	; 0x161e <hydropenia_ico>
	time_ico();
    1786:	0e 94 5f 0b 	call	0x16be	; 0x16be <time_ico>
	flow_ico();
    178a:	0e 94 4f 0b 	call	0x169e	; 0x169e <flow_ico>
	raw_water_ico();
    178e:	0e 94 3f 0b 	call	0x167e	; 0x167e <raw_water_ico>
	leakage_ico();
    1792:	0e 94 1f 0b 	call	0x163e	; 0x163e <leakage_ico>
	pure_water_ico();
    1796:	0e 94 2f 0b 	call	0x165e	; 0x165e <pure_water_ico>
	null_ico();
    179a:	0e 94 6f 0b 	call	0x16de	; 0x16de <null_ico>
    179e:	08 95       	ret

000017a0 <Write_addr_data>:
}
/************************************************************************/
/* addr:地址，num:数据长度, data:数据地址                                                                    */
/************************************************************************/
void Write_addr_data(unsigned char addr,unsigned char len,unsigned char *data)
{
    17a0:	ff 92       	push	r15
    17a2:	0f 93       	push	r16
    17a4:	1f 93       	push	r17
    17a6:	cf 93       	push	r28
    17a8:	df 93       	push	r29
    17aa:	c8 2f       	mov	r28, r24
    17ac:	06 2f       	mov	r16, r22
    17ae:	f4 2e       	mov	r15, r20
    17b0:	15 2f       	mov	r17, r21
	unsigned char i;
	TM1726_SDA_1;
    17b2:	d8 9a       	sbi	0x1b, 0	; 27
	TM1726_SCL_1;
    17b4:	d9 9a       	sbi	0x1b, 1	; 27
	TM1726_start();
    17b6:	0e 94 5d 0a 	call	0x14ba	; 0x14ba <TM1726_start>
	#else
		//round up by default
		__ticks_dc = (uint32_t)(ceil(fabs(__tmp)));
	#endif

	__builtin_avr_delay_cycles(__ticks_dc);
    17ba:	84 e0       	ldi	r24, 0x04	; 4
    17bc:	8a 95       	dec	r24
    17be:	f1 f7       	brne	.-4      	; 0x17bc <Write_addr_data+0x1c>
	_delay_us(TINGD);
	WRITE_DATA_1726(0xc0 + addr);
    17c0:	80 ec       	ldi	r24, 0xC0	; 192
    17c2:	8c 0f       	add	r24, r28
    17c4:	0e 94 79 0a 	call	0x14f2	; 0x14f2 <WRITE_DATA_1726>
	// all RAM have 96
	for (i = 0; i < len; i++)
    17c8:	00 23       	and	r16, r16
    17ca:	59 f0       	breq	.+22     	; 0x17e2 <Write_addr_data+0x42>
    17cc:	cf 2d       	mov	r28, r15
    17ce:	d1 2f       	mov	r29, r17
    17d0:	10 e0       	ldi	r17, 0x00	; 0
	{
		TM1726_SDA_1;
    17d2:	d8 9a       	sbi	0x1b, 0	; 27
		TM1726_SCL_1;
    17d4:	d9 9a       	sbi	0x1b, 1	; 27
		WRITE_DATA_1726((*(data + i)));
    17d6:	89 91       	ld	r24, Y+
    17d8:	0e 94 79 0a 	call	0x14f2	; 0x14f2 <WRITE_DATA_1726>
	TM1726_SCL_1;
	TM1726_start();
	_delay_us(TINGD);
	WRITE_DATA_1726(0xc0 + addr);
	// all RAM have 96
	for (i = 0; i < len; i++)
    17dc:	1f 5f       	subi	r17, 0xFF	; 255
    17de:	10 13       	cpse	r17, r16
    17e0:	f8 cf       	rjmp	.-16     	; 0x17d2 <Write_addr_data+0x32>
	{
		TM1726_SDA_1;
		TM1726_SCL_1;
		WRITE_DATA_1726((*(data + i)));
	}
	TM1726_stop();
    17e2:	0e 94 6b 0a 	call	0x14d6	; 0x14d6 <TM1726_stop>
}
    17e6:	df 91       	pop	r29
    17e8:	cf 91       	pop	r28
    17ea:	1f 91       	pop	r17
    17ec:	0f 91       	pop	r16
    17ee:	ff 90       	pop	r15
    17f0:	08 95       	ret

000017f2 <drip>:
	//_delay_ms(3000);
}
void drip(void)
{
	static unsigned char loop = 0;
	switch(loop)
    17f2:	80 91 8a 04 	lds	r24, 0x048A
    17f6:	82 30       	cpi	r24, 0x02	; 2
    17f8:	81 f1       	breq	.+96     	; 0x185a <drip+0x68>
    17fa:	28 f4       	brcc	.+10     	; 0x1806 <drip+0x14>
    17fc:	88 23       	and	r24, r24
    17fe:	59 f0       	breq	.+22     	; 0x1816 <drip+0x24>
    1800:	81 30       	cpi	r24, 0x01	; 1
    1802:	d1 f0       	breq	.+52     	; 0x1838 <drip+0x46>
    1804:	6c c0       	rjmp	.+216    	; 0x18de <drip+0xec>
    1806:	84 30       	cpi	r24, 0x04	; 4
    1808:	09 f4       	brne	.+2      	; 0x180c <drip+0x1a>
    180a:	48 c0       	rjmp	.+144    	; 0x189c <drip+0xaa>
    180c:	b8 f1       	brcs	.+110    	; 0x187c <drip+0x8a>
    180e:	85 30       	cpi	r24, 0x05	; 5
    1810:	09 f4       	brne	.+2      	; 0x1814 <drip+0x22>
    1812:	55 c0       	rjmp	.+170    	; 0x18be <drip+0xcc>
    1814:	64 c0       	rjmp	.+200    	; 0x18de <drip+0xec>
	{
		case 0:
			LCDNUM[16]&= ~(0x10);//大水圈
    1816:	e0 ed       	ldi	r30, 0xD0	; 208
    1818:	f4 e0       	ldi	r31, 0x04	; 4
    181a:	60 81       	ld	r22, Z
    181c:	6f 7e       	andi	r22, 0xEF	; 239
    181e:	60 83       	st	Z, r22
			WRITE_1DATA_1726(16,LCDNUM[16]);
    1820:	80 e1       	ldi	r24, 0x10	; 16
    1822:	0e 94 dd 0a 	call	0x15ba	; 0x15ba <WRITE_1DATA_1726>
			LCDNUM[12]|=(0x10);//上水滴
    1826:	ec ec       	ldi	r30, 0xCC	; 204
    1828:	f4 e0       	ldi	r31, 0x04	; 4
    182a:	60 81       	ld	r22, Z
    182c:	60 61       	ori	r22, 0x10	; 16
    182e:	60 83       	st	Z, r22
			WRITE_1DATA_1726(12,LCDNUM[12]);
    1830:	8c e0       	ldi	r24, 0x0C	; 12
    1832:	0e 94 dd 0a 	call	0x15ba	; 0x15ba <WRITE_1DATA_1726>
			break;
    1836:	53 c0       	rjmp	.+166    	; 0x18de <drip+0xec>
		case 1:
			LCDNUM[11]|=(0x10);//中水滴
    1838:	eb ec       	ldi	r30, 0xCB	; 203
    183a:	f4 e0       	ldi	r31, 0x04	; 4
    183c:	80 81       	ld	r24, Z
    183e:	80 61       	ori	r24, 0x10	; 16
    1840:	80 83       	st	Z, r24
			LCDNUM[12]&=(~0x10);//上水滴
    1842:	ec ec       	ldi	r30, 0xCC	; 204
    1844:	f4 e0       	ldi	r31, 0x04	; 4
    1846:	80 81       	ld	r24, Z
    1848:	8f 7e       	andi	r24, 0xEF	; 239
    184a:	80 83       	st	Z, r24
			Write_addr_data(11,2,&LCDNUM[11]);
    184c:	4b ec       	ldi	r20, 0xCB	; 203
    184e:	54 e0       	ldi	r21, 0x04	; 4
    1850:	62 e0       	ldi	r22, 0x02	; 2
    1852:	8b e0       	ldi	r24, 0x0B	; 11
    1854:	0e 94 d0 0b 	call	0x17a0	; 0x17a0 <Write_addr_data>
			break;
    1858:	42 c0       	rjmp	.+132    	; 0x18de <drip+0xec>
		case 2:
			LCDNUM[11]&=(~0x10);//中水滴
    185a:	eb ec       	ldi	r30, 0xCB	; 203
    185c:	f4 e0       	ldi	r31, 0x04	; 4
    185e:	60 81       	ld	r22, Z
    1860:	6f 7e       	andi	r22, 0xEF	; 239
    1862:	60 83       	st	Z, r22
			WRITE_1DATA_1726(11,LCDNUM[11]);
    1864:	8b e0       	ldi	r24, 0x0B	; 11
    1866:	0e 94 dd 0a 	call	0x15ba	; 0x15ba <WRITE_1DATA_1726>
			LCDNUM[7]|=(0x01);//下水滴
    186a:	e7 ec       	ldi	r30, 0xC7	; 199
    186c:	f4 e0       	ldi	r31, 0x04	; 4
    186e:	60 81       	ld	r22, Z
    1870:	61 60       	ori	r22, 0x01	; 1
    1872:	60 83       	st	Z, r22
			WRITE_1DATA_1726(7,LCDNUM[7]);
    1874:	87 e0       	ldi	r24, 0x07	; 7
    1876:	0e 94 dd 0a 	call	0x15ba	; 0x15ba <WRITE_1DATA_1726>
			break;
    187a:	31 c0       	rjmp	.+98     	; 0x18de <drip+0xec>
		case 3:
			LCDNUM[7]&=(~0x01);//下水滴
    187c:	e7 ec       	ldi	r30, 0xC7	; 199
    187e:	f4 e0       	ldi	r31, 0x04	; 4
    1880:	80 81       	ld	r24, Z
    1882:	8e 7f       	andi	r24, 0xFE	; 254
    1884:	80 83       	st	Z, r24
			LCDNUM[6]|=(0x01);//小水圈
    1886:	e6 ec       	ldi	r30, 0xC6	; 198
    1888:	f4 e0       	ldi	r31, 0x04	; 4
    188a:	80 81       	ld	r24, Z
    188c:	81 60       	ori	r24, 0x01	; 1
    188e:	80 83       	st	Z, r24
			Write_addr_data(6,2,&LCDNUM[6]);
    1890:	af 01       	movw	r20, r30
    1892:	62 e0       	ldi	r22, 0x02	; 2
    1894:	86 e0       	ldi	r24, 0x06	; 6
    1896:	0e 94 d0 0b 	call	0x17a0	; 0x17a0 <Write_addr_data>
			break;
    189a:	21 c0       	rjmp	.+66     	; 0x18de <drip+0xec>
		case 4:
			LCDNUM[6]&=(~0x01);//小水圈
    189c:	e6 ec       	ldi	r30, 0xC6	; 198
    189e:	f4 e0       	ldi	r31, 0x04	; 4
    18a0:	60 81       	ld	r22, Z
    18a2:	6e 7f       	andi	r22, 0xFE	; 254
    18a4:	60 83       	st	Z, r22
			WRITE_1DATA_1726(6,LCDNUM[6]);
    18a6:	86 e0       	ldi	r24, 0x06	; 6
    18a8:	0e 94 dd 0a 	call	0x15ba	; 0x15ba <WRITE_1DATA_1726>
			LCDNUM[15]|=(0x10);//中水圈
    18ac:	ef ec       	ldi	r30, 0xCF	; 207
    18ae:	f4 e0       	ldi	r31, 0x04	; 4
    18b0:	60 81       	ld	r22, Z
    18b2:	60 61       	ori	r22, 0x10	; 16
    18b4:	60 83       	st	Z, r22
			WRITE_1DATA_1726(15,LCDNUM[15]);
    18b6:	8f e0       	ldi	r24, 0x0F	; 15
    18b8:	0e 94 dd 0a 	call	0x15ba	; 0x15ba <WRITE_1DATA_1726>
			break;
    18bc:	10 c0       	rjmp	.+32     	; 0x18de <drip+0xec>
		case 5:
			LCDNUM[15]&=(~0x10);//中水圈
    18be:	ef ec       	ldi	r30, 0xCF	; 207
    18c0:	f4 e0       	ldi	r31, 0x04	; 4
    18c2:	80 81       	ld	r24, Z
    18c4:	8f 7e       	andi	r24, 0xEF	; 239
    18c6:	80 83       	st	Z, r24
			LCDNUM[16]|=(0x10);//大水圈
    18c8:	e0 ed       	ldi	r30, 0xD0	; 208
    18ca:	f4 e0       	ldi	r31, 0x04	; 4
    18cc:	80 81       	ld	r24, Z
    18ce:	80 61       	ori	r24, 0x10	; 16
    18d0:	80 83       	st	Z, r24
			Write_addr_data(15,2,&LCDNUM[15]);
    18d2:	4f ec       	ldi	r20, 0xCF	; 207
    18d4:	54 e0       	ldi	r21, 0x04	; 4
    18d6:	62 e0       	ldi	r22, 0x02	; 2
    18d8:	8f e0       	ldi	r24, 0x0F	; 15
    18da:	0e 94 d0 0b 	call	0x17a0	; 0x17a0 <Write_addr_data>
			break;
		default: break;
	}
	loop ++;
    18de:	80 91 8a 04 	lds	r24, 0x048A
    18e2:	8f 5f       	subi	r24, 0xFF	; 255
	if(loop>5) 
    18e4:	86 30       	cpi	r24, 0x06	; 6
    18e6:	18 f4       	brcc	.+6      	; 0x18ee <drip+0xfc>
			LCDNUM[16]|=(0x10);//大水圈
			Write_addr_data(15,2,&LCDNUM[15]);
			break;
		default: break;
	}
	loop ++;
    18e8:	80 93 8a 04 	sts	0x048A, r24
    18ec:	08 95       	ret
	if(loop>5) 
		loop = 0;
    18ee:	10 92 8a 04 	sts	0x048A, r1
    18f2:	08 95       	ret

000018f4 <time_set>:
inline void reset_lcd(void)
{
	memset(LCDNUM,0,18);
}
void time_set(unsigned char *time)
{
    18f4:	fc 01       	movw	r30, r24
		unsigned char len = strlen(time);
    18f6:	dc 01       	movw	r26, r24
    18f8:	0d 90       	ld	r0, X+
    18fa:	00 20       	and	r0, r0
    18fc:	e9 f7       	brne	.-6      	; 0x18f8 <time_set+0x4>
    18fe:	11 97       	sbiw	r26, 0x01	; 1
    1900:	a8 1b       	sub	r26, r24
    1902:	a6 30       	cpi	r26, 0x06	; 6
    1904:	08 f0       	brcs	.+2      	; 0x1908 <time_set+0x14>
    1906:	a5 e0       	ldi	r26, 0x05	; 5
		if(len> 5)
			len = 5;
		//len = 3;
		switch(len)
    1908:	a2 30       	cpi	r26, 0x02	; 2
    190a:	79 f0       	breq	.+30     	; 0x192a <time_set+0x36>
    190c:	28 f4       	brcc	.+10     	; 0x1918 <time_set+0x24>
    190e:	aa 23       	and	r26, r26
    1910:	41 f0       	breq	.+16     	; 0x1922 <time_set+0x2e>
    1912:	a1 30       	cpi	r26, 0x01	; 1
    1914:	41 f0       	breq	.+16     	; 0x1926 <time_set+0x32>
    1916:	0f c0       	rjmp	.+30     	; 0x1936 <time_set+0x42>
    1918:	a3 30       	cpi	r26, 0x03	; 3
    191a:	49 f0       	breq	.+18     	; 0x192e <time_set+0x3a>
    191c:	a4 30       	cpi	r26, 0x04	; 4
    191e:	49 f0       	breq	.+18     	; 0x1932 <time_set+0x3e>
    1920:	0a c0       	rjmp	.+20     	; 0x1936 <time_set+0x42>
		{
			case 0:
				LCDNUM[0]=0x00;
    1922:	10 92 c0 04 	sts	0x04C0, r1
			case 1:
				LCDNUM[1]=0x00;
    1926:	10 92 c1 04 	sts	0x04C1, r1
			case 2:
				LCDNUM[2]=0x00;
    192a:	10 92 c2 04 	sts	0x04C2, r1
			case 3:
				LCDNUM[3]=0x00;
    192e:	10 92 c3 04 	sts	0x04C3, r1
			case 4:
				LCDNUM[4]=0x00;
    1932:	10 92 c4 04 	sts	0x04C4, r1
			default: break;
		}
		switch(len)
    1936:	a3 30       	cpi	r26, 0x03	; 3
    1938:	c1 f0       	breq	.+48     	; 0x196a <time_set+0x76>
    193a:	28 f4       	brcc	.+10     	; 0x1946 <time_set+0x52>
    193c:	a1 30       	cpi	r26, 0x01	; 1
    193e:	19 f1       	breq	.+70     	; 0x1986 <time_set+0x92>
    1940:	a2 30       	cpi	r26, 0x02	; 2
    1942:	d1 f0       	breq	.+52     	; 0x1978 <time_set+0x84>
    1944:	08 95       	ret
    1946:	a4 30       	cpi	r26, 0x04	; 4
    1948:	49 f0       	breq	.+18     	; 0x195c <time_set+0x68>
    194a:	a5 30       	cpi	r26, 0x05	; 5
    194c:	19 f5       	brne	.+70     	; 0x1994 <time_set+0xa0>
		{
			case 5:
				LCDNUM[4]=SMGL[*(time+4)-0x30];
    194e:	a4 81       	ldd	r26, Z+4	; 0x04
    1950:	b0 e0       	ldi	r27, 0x00	; 0
    1952:	aa 5a       	subi	r26, 0xAA	; 170
    1954:	be 4f       	sbci	r27, 0xFE	; 254
    1956:	8c 91       	ld	r24, X
    1958:	80 93 c4 04 	sts	0x04C4, r24
			case 4:
				LCDNUM[3]=SMGL[*(time+3)-0x30];
    195c:	a3 81       	ldd	r26, Z+3	; 0x03
    195e:	b0 e0       	ldi	r27, 0x00	; 0
    1960:	aa 5a       	subi	r26, 0xAA	; 170
    1962:	be 4f       	sbci	r27, 0xFE	; 254
    1964:	8c 91       	ld	r24, X
    1966:	80 93 c3 04 	sts	0x04C3, r24
			case 3:
				LCDNUM[2]=SMGL[*(time+2)-0x30];
    196a:	a2 81       	ldd	r26, Z+2	; 0x02
    196c:	b0 e0       	ldi	r27, 0x00	; 0
    196e:	aa 5a       	subi	r26, 0xAA	; 170
    1970:	be 4f       	sbci	r27, 0xFE	; 254
    1972:	8c 91       	ld	r24, X
    1974:	80 93 c2 04 	sts	0x04C2, r24
			case 2:
				LCDNUM[1]=SMGL[*(time+1)-0x30];
    1978:	a1 81       	ldd	r26, Z+1	; 0x01
    197a:	b0 e0       	ldi	r27, 0x00	; 0
    197c:	aa 5a       	subi	r26, 0xAA	; 170
    197e:	be 4f       	sbci	r27, 0xFE	; 254
    1980:	8c 91       	ld	r24, X
    1982:	80 93 c1 04 	sts	0x04C1, r24
			case 1:
				LCDNUM[0]=SMGL[*(time+ 0)-0x30];
    1986:	e0 81       	ld	r30, Z
    1988:	f0 e0       	ldi	r31, 0x00	; 0
    198a:	ea 5a       	subi	r30, 0xAA	; 170
    198c:	fe 4f       	sbci	r31, 0xFE	; 254
    198e:	80 81       	ld	r24, Z
    1990:	80 93 c0 04 	sts	0x04C0, r24
    1994:	08 95       	ret

00001996 <flow_set>:
			default: break;
		}
}
void flow_set(unsigned char *flow)
{
    1996:	cf 93       	push	r28
    1998:	df 93       	push	r29
		unsigned char len = strlen(flow);
    199a:	fc 01       	movw	r30, r24
    199c:	01 90       	ld	r0, Z+
    199e:	00 20       	and	r0, r0
    19a0:	e9 f7       	brne	.-6      	; 0x199c <flow_set+0x6>
    19a2:	31 97       	sbiw	r30, 0x01	; 1
    19a4:	e8 1b       	sub	r30, r24
    19a6:	e6 30       	cpi	r30, 0x06	; 6
    19a8:	08 f0       	brcs	.+2      	; 0x19ac <flow_set+0x16>
    19aa:	e5 e0       	ldi	r30, 0x05	; 5
		if(len > 5)
			len = 5;
		switch(len)
    19ac:	e2 30       	cpi	r30, 0x02	; 2
    19ae:	79 f0       	breq	.+30     	; 0x19ce <flow_set+0x38>
    19b0:	28 f4       	brcc	.+10     	; 0x19bc <flow_set+0x26>
    19b2:	ee 23       	and	r30, r30
    19b4:	41 f0       	breq	.+16     	; 0x19c6 <flow_set+0x30>
    19b6:	e1 30       	cpi	r30, 0x01	; 1
    19b8:	41 f0       	breq	.+16     	; 0x19ca <flow_set+0x34>
    19ba:	0f c0       	rjmp	.+30     	; 0x19da <flow_set+0x44>
    19bc:	e3 30       	cpi	r30, 0x03	; 3
    19be:	49 f0       	breq	.+18     	; 0x19d2 <flow_set+0x3c>
    19c0:	e4 30       	cpi	r30, 0x04	; 4
    19c2:	49 f0       	breq	.+18     	; 0x19d6 <flow_set+0x40>
    19c4:	0a c0       	rjmp	.+20     	; 0x19da <flow_set+0x44>
		{
			case 0:
				LCDNUM[9]=0x00;
    19c6:	10 92 c9 04 	sts	0x04C9, r1
			case 1:
				LCDNUM[8]=0x00;
    19ca:	10 92 c8 04 	sts	0x04C8, r1
			case 2:
				LCDNUM[7]=0x00;
    19ce:	10 92 c7 04 	sts	0x04C7, r1
			case 3:
				LCDNUM[6]=0x00;
    19d2:	10 92 c6 04 	sts	0x04C6, r1
			case 4:
				LCDNUM[5]=0x00;
    19d6:	10 92 c5 04 	sts	0x04C5, r1
			default: break;
		}
		//len = 3;
		switch(len)
    19da:	e3 30       	cpi	r30, 0x03	; 3
    19dc:	e9 f0       	breq	.+58     	; 0x1a18 <flow_set+0x82>
    19de:	28 f4       	brcc	.+10     	; 0x19ea <flow_set+0x54>
    19e0:	e1 30       	cpi	r30, 0x01	; 1
    19e2:	81 f1       	breq	.+96     	; 0x1a44 <flow_set+0xae>
    19e4:	e2 30       	cpi	r30, 0x02	; 2
    19e6:	19 f1       	breq	.+70     	; 0x1a2e <flow_set+0x98>
    19e8:	38 c0       	rjmp	.+112    	; 0x1a5a <flow_set+0xc4>
    19ea:	e4 30       	cpi	r30, 0x04	; 4
    19ec:	51 f0       	breq	.+20     	; 0x1a02 <flow_set+0x6c>
    19ee:	e5 30       	cpi	r30, 0x05	; 5
    19f0:	a1 f5       	brne	.+104    	; 0x1a5a <flow_set+0xc4>
		{
			case 5:
				LCDNUM[5]=SMGL[*(flow+ len - 5)-0x30];
    19f2:	ec 01       	movw	r28, r24
    19f4:	a8 81       	ld	r26, Y
    19f6:	b0 e0       	ldi	r27, 0x00	; 0
    19f8:	aa 5a       	subi	r26, 0xAA	; 170
    19fa:	be 4f       	sbci	r27, 0xFE	; 254
    19fc:	2c 91       	ld	r18, X
    19fe:	20 93 c5 04 	sts	0x04C5, r18
			case 4:
				LCDNUM[6]=SMGL[*(flow+ len - 4)-0x30];
    1a02:	dc 01       	movw	r26, r24
    1a04:	ae 0f       	add	r26, r30
    1a06:	b1 1d       	adc	r27, r1
    1a08:	14 97       	sbiw	r26, 0x04	; 4
    1a0a:	ac 91       	ld	r26, X
    1a0c:	b0 e0       	ldi	r27, 0x00	; 0
    1a0e:	aa 5a       	subi	r26, 0xAA	; 170
    1a10:	be 4f       	sbci	r27, 0xFE	; 254
    1a12:	2c 91       	ld	r18, X
    1a14:	20 93 c6 04 	sts	0x04C6, r18
			case 3:
				LCDNUM[7]=SMGL[*(flow+ len - 3)-0x30];
    1a18:	dc 01       	movw	r26, r24
    1a1a:	ae 0f       	add	r26, r30
    1a1c:	b1 1d       	adc	r27, r1
    1a1e:	13 97       	sbiw	r26, 0x03	; 3
    1a20:	ac 91       	ld	r26, X
    1a22:	b0 e0       	ldi	r27, 0x00	; 0
    1a24:	aa 5a       	subi	r26, 0xAA	; 170
    1a26:	be 4f       	sbci	r27, 0xFE	; 254
    1a28:	2c 91       	ld	r18, X
    1a2a:	20 93 c7 04 	sts	0x04C7, r18
			case 2:
				LCDNUM[8]=SMGL[*(flow+ len - 2)-0x30];
    1a2e:	dc 01       	movw	r26, r24
    1a30:	ae 0f       	add	r26, r30
    1a32:	b1 1d       	adc	r27, r1
    1a34:	12 97       	sbiw	r26, 0x02	; 2
    1a36:	ac 91       	ld	r26, X
    1a38:	b0 e0       	ldi	r27, 0x00	; 0
    1a3a:	aa 5a       	subi	r26, 0xAA	; 170
    1a3c:	be 4f       	sbci	r27, 0xFE	; 254
    1a3e:	2c 91       	ld	r18, X
    1a40:	20 93 c8 04 	sts	0x04C8, r18
			case 1:
				LCDNUM[9]=SMGL[*(flow+ len - 1)-0x30];
    1a44:	8e 0f       	add	r24, r30
    1a46:	91 1d       	adc	r25, r1
    1a48:	fc 01       	movw	r30, r24
    1a4a:	31 97       	sbiw	r30, 0x01	; 1
    1a4c:	e0 81       	ld	r30, Z
    1a4e:	f0 e0       	ldi	r31, 0x00	; 0
    1a50:	ea 5a       	subi	r30, 0xAA	; 170
    1a52:	fe 4f       	sbci	r31, 0xFE	; 254
    1a54:	80 81       	ld	r24, Z
    1a56:	80 93 c9 04 	sts	0x04C9, r24
// 			LCDNUM[7] |= (0x01);
// 		if(drp_num == 4)
// 			LCDNUM[6] |= (0x01);
// 		else
// 			LCDNUM[6] &= ~(0x01);
}
    1a5a:	df 91       	pop	r29
    1a5c:	cf 91       	pop	r28
    1a5e:	08 95       	ret

00001a60 <LCD_Init>:

char SCQ = 0;
unsigned char LCD_Ico = 0;//0:时间,1:流量,2:原水,3:纯水,4:缺水,5:漏水,6:信号,7:附网
static void LCD_GPIO_Init(void)//PA0 
{
	DDRA |= (0x3<<0);
    1a60:	8a b3       	in	r24, 0x1a	; 26
    1a62:	83 60       	ori	r24, 0x03	; 3
    1a64:	8a bb       	out	0x1a, r24	; 26
	PORTA |= (0x3<<0);
    1a66:	8b b3       	in	r24, 0x1b	; 27
    1a68:	83 60       	ori	r24, 0x03	; 3
    1a6a:	8b bb       	out	0x1b, r24	; 27
	
	DDRC |= (0x7<<1);
    1a6c:	84 b3       	in	r24, 0x14	; 20
    1a6e:	8e 60       	ori	r24, 0x0E	; 14
    1a70:	84 bb       	out	0x14, r24	; 20
	PORTA |= (0x7<<1);	
    1a72:	8b b3       	in	r24, 0x1b	; 27
    1a74:	8e 60       	ori	r24, 0x0E	; 14
    1a76:	8b bb       	out	0x1b, r24	; 27
}
void LCD_Init(void)
{
	LCD_GPIO_Init();
	INIT_1726();
    1a78:	0e 94 d0 0a 	call	0x15a0	; 0x15a0 <INIT_1726>
	#else
		//round up by default
		__ticks_dc = (uint32_t)(ceil(fabs(__tmp)));
	#endif

	__builtin_avr_delay_cycles(__ticks_dc);
    1a7c:	2f ef       	ldi	r18, 0xFF	; 255
    1a7e:	8f eb       	ldi	r24, 0xBF	; 191
    1a80:	96 e0       	ldi	r25, 0x06	; 6
    1a82:	21 50       	subi	r18, 0x01	; 1
    1a84:	80 40       	sbci	r24, 0x00	; 0
    1a86:	90 40       	sbci	r25, 0x00	; 0
    1a88:	e1 f7       	brne	.-8      	; 0x1a82 <LCD_Init+0x22>
    1a8a:	00 c0       	rjmp	.+0      	; 0x1a8c <LCD_Init+0x2c>
    1a8c:	00 00       	nop
	_delay_ms(200);
	HT1721C_BL_1;	
    1a8e:	1a 9a       	sbi	0x03, 2	; 3
	WRITE_ALLRAM_1726(1);	
    1a90:	81 e0       	ldi	r24, 0x01	; 1
    1a92:	0e 94 8f 0a 	call	0x151e	; 0x151e <WRITE_ALLRAM_1726>
    1a96:	2f ef       	ldi	r18, 0xFF	; 255
    1a98:	8f eb       	ldi	r24, 0xBF	; 191
    1a9a:	91 e2       	ldi	r25, 0x21	; 33
    1a9c:	21 50       	subi	r18, 0x01	; 1
    1a9e:	80 40       	sbci	r24, 0x00	; 0
    1aa0:	90 40       	sbci	r25, 0x00	; 0
    1aa2:	e1 f7       	brne	.-8      	; 0x1a9c <LCD_Init+0x3c>
    1aa4:	00 c0       	rjmp	.+0      	; 0x1aa6 <LCD_Init+0x46>
    1aa6:	00 00       	nop
	_delay_ms(1000);
	//WRITE_ALLRAM_1726(0);
	
	flow_set(&Device[3]);//显示设备码
    1aa8:	80 ee       	ldi	r24, 0xE0	; 224
    1aaa:	93 e0       	ldi	r25, 0x03	; 3
    1aac:	0e 94 cb 0c 	call	0x1996	; 0x1996 <flow_set>
	REFRESH_ALLRAM_1726();
    1ab0:	0e 94 af 0a 	call	0x155e	; 0x155e <REFRESH_ALLRAM_1726>
    1ab4:	08 95       	ret

00001ab6 <pure_water_set>:
// 			LCDNUM[6] |= (0x01);
// 		else
// 			LCDNUM[6] &= ~(0x01);
}
void pure_water_set(unsigned char *pure_water)
{
    1ab6:	cf 93       	push	r28
    1ab8:	df 93       	push	r29
		//USART1_Transmit((strlen(pure_water)));
		unsigned char len = strlen(pure_water);
    1aba:	fc 01       	movw	r30, r24
    1abc:	01 90       	ld	r0, Z+
    1abe:	00 20       	and	r0, r0
    1ac0:	e9 f7       	brne	.-6      	; 0x1abc <pure_water_set+0x6>
    1ac2:	31 97       	sbiw	r30, 0x01	; 1
    1ac4:	e8 1b       	sub	r30, r24
    1ac6:	e5 30       	cpi	r30, 0x05	; 5
    1ac8:	08 f0       	brcs	.+2      	; 0x1acc <pure_water_set+0x16>
    1aca:	e4 e0       	ldi	r30, 0x04	; 4
		//len = 3;
		if(len > 4)
			len = 4;
		switch(len)
    1acc:	e1 30       	cpi	r30, 0x01	; 1
    1ace:	41 f0       	breq	.+16     	; 0x1ae0 <pure_water_set+0x2a>
    1ad0:	28 f0       	brcs	.+10     	; 0x1adc <pure_water_set+0x26>
    1ad2:	e2 30       	cpi	r30, 0x02	; 2
    1ad4:	39 f0       	breq	.+14     	; 0x1ae4 <pure_water_set+0x2e>
    1ad6:	e3 30       	cpi	r30, 0x03	; 3
    1ad8:	39 f0       	breq	.+14     	; 0x1ae8 <pure_water_set+0x32>
    1ada:	08 c0       	rjmp	.+16     	; 0x1aec <pure_water_set+0x36>
		{
			case 0:
				LCDNUM[10]=0x00;
    1adc:	10 92 ca 04 	sts	0x04CA, r1
			case 1:
				LCDNUM[11]=0x00;
    1ae0:	10 92 cb 04 	sts	0x04CB, r1
			case 2:
				LCDNUM[12]=0x00;
    1ae4:	10 92 cc 04 	sts	0x04CC, r1
			case 3:
				LCDNUM[13]=0x00;
    1ae8:	10 92 cd 04 	sts	0x04CD, r1
			default: break;
		}
		switch(len)
    1aec:	e2 30       	cpi	r30, 0x02	; 2
    1aee:	d9 f0       	breq	.+54     	; 0x1b26 <pure_water_set+0x70>
    1af0:	18 f4       	brcc	.+6      	; 0x1af8 <pure_water_set+0x42>
    1af2:	e1 30       	cpi	r30, 0x01	; 1
    1af4:	19 f1       	breq	.+70     	; 0x1b3c <pure_water_set+0x86>
    1af6:	2d c0       	rjmp	.+90     	; 0x1b52 <pure_water_set+0x9c>
    1af8:	e3 30       	cpi	r30, 0x03	; 3
    1afa:	51 f0       	breq	.+20     	; 0x1b10 <pure_water_set+0x5a>
    1afc:	e4 30       	cpi	r30, 0x04	; 4
    1afe:	49 f5       	brne	.+82     	; 0x1b52 <pure_water_set+0x9c>
		{
			case 4:
				LCDNUM[13]=SMG[*(pure_water+len-4)-0x30];
    1b00:	ec 01       	movw	r28, r24
    1b02:	a8 81       	ld	r26, Y
    1b04:	b0 e0       	ldi	r27, 0x00	; 0
    1b06:	a0 5a       	subi	r26, 0xA0	; 160
    1b08:	be 4f       	sbci	r27, 0xFE	; 254
    1b0a:	2c 91       	ld	r18, X
    1b0c:	20 93 cd 04 	sts	0x04CD, r18
			case 3:
				LCDNUM[12]=SMG[*(pure_water+len-3)-0x30];
    1b10:	dc 01       	movw	r26, r24
    1b12:	ae 0f       	add	r26, r30
    1b14:	b1 1d       	adc	r27, r1
    1b16:	13 97       	sbiw	r26, 0x03	; 3
    1b18:	ac 91       	ld	r26, X
    1b1a:	b0 e0       	ldi	r27, 0x00	; 0
    1b1c:	a0 5a       	subi	r26, 0xA0	; 160
    1b1e:	be 4f       	sbci	r27, 0xFE	; 254
    1b20:	2c 91       	ld	r18, X
    1b22:	20 93 cc 04 	sts	0x04CC, r18
			case 2:
				LCDNUM[11]=SMG[*(pure_water+len-2)-0x30];
    1b26:	dc 01       	movw	r26, r24
    1b28:	ae 0f       	add	r26, r30
    1b2a:	b1 1d       	adc	r27, r1
    1b2c:	12 97       	sbiw	r26, 0x02	; 2
    1b2e:	ac 91       	ld	r26, X
    1b30:	b0 e0       	ldi	r27, 0x00	; 0
    1b32:	a0 5a       	subi	r26, 0xA0	; 160
    1b34:	be 4f       	sbci	r27, 0xFE	; 254
    1b36:	2c 91       	ld	r18, X
    1b38:	20 93 cb 04 	sts	0x04CB, r18
			case 1:
				LCDNUM[10]=SMG[*(pure_water+len-1)-0x30];
    1b3c:	8e 0f       	add	r24, r30
    1b3e:	91 1d       	adc	r25, r1
    1b40:	fc 01       	movw	r30, r24
    1b42:	31 97       	sbiw	r30, 0x01	; 1
    1b44:	e0 81       	ld	r30, Z
    1b46:	f0 e0       	ldi	r31, 0x00	; 0
    1b48:	e0 5a       	subi	r30, 0xA0	; 160
    1b4a:	fe 4f       	sbci	r31, 0xFE	; 254
    1b4c:	80 81       	ld	r24, Z
    1b4e:	80 93 ca 04 	sts	0x04CA, r24
// 			LCDNUM[11] |= (0x10);
// 		if(drp_num == 1)
// 			LCDNUM[12] |= (0x10);
// 		if(error_ico & (0x1<<1))
// 			LCDNUM[13] |= (0x10);
}
    1b52:	df 91       	pop	r29
    1b54:	cf 91       	pop	r28
    1b56:	08 95       	ret

00001b58 <raw_water_set>:
void raw_water_set(unsigned char *raw_water)
{
    1b58:	fc 01       	movw	r30, r24
	
		unsigned char len = strlen(raw_water);
    1b5a:	dc 01       	movw	r26, r24
    1b5c:	0d 90       	ld	r0, X+
    1b5e:	00 20       	and	r0, r0
    1b60:	e9 f7       	brne	.-6      	; 0x1b5c <raw_water_set+0x4>
    1b62:	11 97       	sbiw	r26, 0x01	; 1
    1b64:	a8 1b       	sub	r26, r24
    1b66:	a5 30       	cpi	r26, 0x05	; 5
    1b68:	08 f0       	brcs	.+2      	; 0x1b6c <raw_water_set+0x14>
    1b6a:	a4 e0       	ldi	r26, 0x04	; 4
		//len = 3;
		if(len > 4)
			len = 4;
			switch(len)
    1b6c:	a1 30       	cpi	r26, 0x01	; 1
    1b6e:	41 f0       	breq	.+16     	; 0x1b80 <raw_water_set+0x28>
    1b70:	28 f0       	brcs	.+10     	; 0x1b7c <raw_water_set+0x24>
    1b72:	a2 30       	cpi	r26, 0x02	; 2
    1b74:	39 f0       	breq	.+14     	; 0x1b84 <raw_water_set+0x2c>
    1b76:	a3 30       	cpi	r26, 0x03	; 3
    1b78:	39 f0       	breq	.+14     	; 0x1b88 <raw_water_set+0x30>
    1b7a:	08 c0       	rjmp	.+16     	; 0x1b8c <raw_water_set+0x34>
		{
			case 0:
				LCDNUM[17]=0x00;
    1b7c:	10 92 d1 04 	sts	0x04D1, r1
			case 1:
				LCDNUM[16]=0x00;
    1b80:	10 92 d0 04 	sts	0x04D0, r1
			case 2:
				LCDNUM[15]=0x00;
    1b84:	10 92 cf 04 	sts	0x04CF, r1
			case 3:
				LCDNUM[14]=0x00;
    1b88:	10 92 ce 04 	sts	0x04CE, r1
			default: break;
		}
		switch(len)
    1b8c:	a2 30       	cpi	r26, 0x02	; 2
    1b8e:	b1 f0       	breq	.+44     	; 0x1bbc <raw_water_set+0x64>
    1b90:	18 f4       	brcc	.+6      	; 0x1b98 <raw_water_set+0x40>
    1b92:	a1 30       	cpi	r26, 0x01	; 1
    1b94:	d1 f0       	breq	.+52     	; 0x1bca <raw_water_set+0x72>
    1b96:	08 95       	ret
    1b98:	a3 30       	cpi	r26, 0x03	; 3
    1b9a:	49 f0       	breq	.+18     	; 0x1bae <raw_water_set+0x56>
    1b9c:	a4 30       	cpi	r26, 0x04	; 4
    1b9e:	e1 f4       	brne	.+56     	; 0x1bd8 <raw_water_set+0x80>
		{
			case 4:
				LCDNUM[14]=SMG[*(raw_water+3)-0x30];
    1ba0:	a3 81       	ldd	r26, Z+3	; 0x03
    1ba2:	b0 e0       	ldi	r27, 0x00	; 0
    1ba4:	a0 5a       	subi	r26, 0xA0	; 160
    1ba6:	be 4f       	sbci	r27, 0xFE	; 254
    1ba8:	8c 91       	ld	r24, X
    1baa:	80 93 ce 04 	sts	0x04CE, r24
			case 3:
				LCDNUM[15]=SMG[*(raw_water+2)-0x30];
    1bae:	a2 81       	ldd	r26, Z+2	; 0x02
    1bb0:	b0 e0       	ldi	r27, 0x00	; 0
    1bb2:	a0 5a       	subi	r26, 0xA0	; 160
    1bb4:	be 4f       	sbci	r27, 0xFE	; 254
    1bb6:	8c 91       	ld	r24, X
    1bb8:	80 93 cf 04 	sts	0x04CF, r24
			case 2:
				LCDNUM[16]=SMG[*(raw_water+1)-0x30];
    1bbc:	a1 81       	ldd	r26, Z+1	; 0x01
    1bbe:	b0 e0       	ldi	r27, 0x00	; 0
    1bc0:	a0 5a       	subi	r26, 0xA0	; 160
    1bc2:	be 4f       	sbci	r27, 0xFE	; 254
    1bc4:	8c 91       	ld	r24, X
    1bc6:	80 93 d0 04 	sts	0x04D0, r24
			case 1:
				LCDNUM[17]=SMG[*(raw_water+0)-0x30];
    1bca:	e0 81       	ld	r30, Z
    1bcc:	f0 e0       	ldi	r31, 0x00	; 0
    1bce:	e0 5a       	subi	r30, 0xA0	; 160
    1bd0:	fe 4f       	sbci	r31, 0xFE	; 254
    1bd2:	80 81       	ld	r24, Z
    1bd4:	80 93 d1 04 	sts	0x04D1, r24
    1bd8:	08 95       	ret

00001bda <SET_TIME>:
// 			LCDNUM[16] |= (0x10);
}


inline void SET_TIME(unsigned int time)
{
    1bda:	cf 93       	push	r28
    1bdc:	df 93       	push	r29
    1bde:	cd b7       	in	r28, 0x3d	; 61
    1be0:	de b7       	in	r29, 0x3e	; 62
    1be2:	28 97       	sbiw	r28, 0x08	; 8
    1be4:	0f b6       	in	r0, 0x3f	; 63
    1be6:	f8 94       	cli
    1be8:	de bf       	out	0x3e, r29	; 62
    1bea:	0f be       	out	0x3f, r0	; 63
    1bec:	cd bf       	out	0x3d, r28	; 61
	unsigned char time_str[8]={0};
    1bee:	fe 01       	movw	r30, r28
    1bf0:	31 96       	adiw	r30, 0x01	; 1
    1bf2:	28 e0       	ldi	r18, 0x08	; 8
    1bf4:	df 01       	movw	r26, r30
    1bf6:	1d 92       	st	X+, r1
    1bf8:	2a 95       	dec	r18
    1bfa:	e9 f7       	brne	.-6      	; 0x1bf6 <SET_TIME+0x1c>
	if(time != 0)
    1bfc:	00 97       	sbiw	r24, 0x00	; 0
    1bfe:	49 f0       	breq	.+18     	; 0x1c12 <SET_TIME+0x38>
	{
		itoa(time_str,time);
    1c00:	bc 01       	movw	r22, r24
    1c02:	cf 01       	movw	r24, r30
    1c04:	0e 94 8c 07 	call	0xf18	; 0xf18 <itoa>
		time_set(time_str);
    1c08:	ce 01       	movw	r24, r28
    1c0a:	01 96       	adiw	r24, 0x01	; 1
    1c0c:	0e 94 7a 0c 	call	0x18f4	; 0x18f4 <time_set>
    1c10:	04 c0       	rjmp	.+8      	; 0x1c1a <SET_TIME+0x40>
	}
	else
		time_set("0");
    1c12:	86 e2       	ldi	r24, 0x26	; 38
    1c14:	94 e0       	ldi	r25, 0x04	; 4
    1c16:	0e 94 7a 0c 	call	0x18f4	; 0x18f4 <time_set>
}
    1c1a:	28 96       	adiw	r28, 0x08	; 8
    1c1c:	0f b6       	in	r0, 0x3f	; 63
    1c1e:	f8 94       	cli
    1c20:	de bf       	out	0x3e, r29	; 62
    1c22:	0f be       	out	0x3f, r0	; 63
    1c24:	cd bf       	out	0x3d, r28	; 61
    1c26:	df 91       	pop	r29
    1c28:	cf 91       	pop	r28
    1c2a:	08 95       	ret

00001c2c <SET_FLOW_L>:

inline void SET_FLOW_L(unsigned int flow)
{
    1c2c:	cf 93       	push	r28
    1c2e:	df 93       	push	r29
    1c30:	cd b7       	in	r28, 0x3d	; 61
    1c32:	de b7       	in	r29, 0x3e	; 62
    1c34:	28 97       	sbiw	r28, 0x08	; 8
    1c36:	0f b6       	in	r0, 0x3f	; 63
    1c38:	f8 94       	cli
    1c3a:	de bf       	out	0x3e, r29	; 62
    1c3c:	0f be       	out	0x3f, r0	; 63
    1c3e:	cd bf       	out	0x3d, r28	; 61
	unsigned char flow_str[8] = {0};
    1c40:	fe 01       	movw	r30, r28
    1c42:	31 96       	adiw	r30, 0x01	; 1
    1c44:	28 e0       	ldi	r18, 0x08	; 8
    1c46:	df 01       	movw	r26, r30
    1c48:	1d 92       	st	X+, r1
    1c4a:	2a 95       	dec	r18
    1c4c:	e9 f7       	brne	.-6      	; 0x1c48 <SET_FLOW_L+0x1c>
	if(flow != 0)
    1c4e:	00 97       	sbiw	r24, 0x00	; 0
    1c50:	49 f0       	breq	.+18     	; 0x1c64 <SET_FLOW_L+0x38>
	{
		itoa(flow_str,flow);
    1c52:	bc 01       	movw	r22, r24
    1c54:	cf 01       	movw	r24, r30
    1c56:	0e 94 8c 07 	call	0xf18	; 0xf18 <itoa>
		flow_set(flow_str);
    1c5a:	ce 01       	movw	r24, r28
    1c5c:	01 96       	adiw	r24, 0x01	; 1
    1c5e:	0e 94 cb 0c 	call	0x1996	; 0x1996 <flow_set>
    1c62:	04 c0       	rjmp	.+8      	; 0x1c6c <SET_FLOW_L+0x40>
	}
	else
		flow_set("0");
    1c64:	86 e2       	ldi	r24, 0x26	; 38
    1c66:	94 e0       	ldi	r25, 0x04	; 4
    1c68:	0e 94 cb 0c 	call	0x1996	; 0x1996 <flow_set>
}
    1c6c:	28 96       	adiw	r28, 0x08	; 8
    1c6e:	0f b6       	in	r0, 0x3f	; 63
    1c70:	f8 94       	cli
    1c72:	de bf       	out	0x3e, r29	; 62
    1c74:	0f be       	out	0x3f, r0	; 63
    1c76:	cd bf       	out	0x3d, r28	; 61
    1c78:	df 91       	pop	r29
    1c7a:	cf 91       	pop	r28
    1c7c:	08 95       	ret

00001c7e <SET_FLOW>:
inline void SET_FLOW(unsigned char *flow)
{
    1c7e:	cf 93       	push	r28
    1c80:	df 93       	push	r29
    1c82:	ec 01       	movw	r28, r24
	itoa(flow,Time1_Get_TCNT());	
    1c84:	0e 94 af 10 	call	0x215e	; 0x215e <Time1_Get_TCNT>
    1c88:	bc 01       	movw	r22, r24
    1c8a:	ce 01       	movw	r24, r28
    1c8c:	0e 94 8c 07 	call	0xf18	; 0xf18 <itoa>
	if(*flow == 0 ) 
    1c90:	88 81       	ld	r24, Y
    1c92:	81 11       	cpse	r24, r1
    1c94:	05 c0       	rjmp	.+10     	; 0x1ca0 <SET_FLOW+0x22>
		flow_set("0");
    1c96:	86 e2       	ldi	r24, 0x26	; 38
    1c98:	94 e0       	ldi	r25, 0x04	; 4
    1c9a:	0e 94 cb 0c 	call	0x1996	; 0x1996 <flow_set>
    1c9e:	03 c0       	rjmp	.+6      	; 0x1ca6 <SET_FLOW+0x28>
//	EEPROM_Write_Buf(0x18,8,flaw);
	else
		flow_set(flow);
    1ca0:	ce 01       	movw	r24, r28
    1ca2:	0e 94 cb 0c 	call	0x1996	; 0x1996 <flow_set>

}
    1ca6:	df 91       	pop	r29
    1ca8:	cf 91       	pop	r28
    1caa:	08 95       	ret

00001cac <SET_TDS1>:
inline void SET_TDS1(unsigned char *tds1)
{
    1cac:	cf 92       	push	r12
    1cae:	df 92       	push	r13
    1cb0:	ef 92       	push	r14
    1cb2:	ff 92       	push	r15
    1cb4:	0f 93       	push	r16
    1cb6:	1f 93       	push	r17
    1cb8:	cf 93       	push	r28
    1cba:	df 93       	push	r29
    1cbc:	ec 01       	movw	r28, r24
	itoa(tds1,(65536-(ADC_Get(6)))/200);
    1cbe:	86 e0       	ldi	r24, 0x06	; 6
    1cc0:	90 e0       	ldi	r25, 0x00	; 0
    1cc2:	0e 94 84 00 	call	0x108	; 0x108 <ADC_Get>
    1cc6:	ac 01       	movw	r20, r24
    1cc8:	66 27       	eor	r22, r22
    1cca:	57 fd       	sbrc	r21, 7
    1ccc:	60 95       	com	r22
    1cce:	76 2f       	mov	r23, r22
    1cd0:	00 e0       	ldi	r16, 0x00	; 0
    1cd2:	10 e0       	ldi	r17, 0x00	; 0
    1cd4:	21 e0       	ldi	r18, 0x01	; 1
    1cd6:	30 e0       	ldi	r19, 0x00	; 0
    1cd8:	68 01       	movw	r12, r16
    1cda:	79 01       	movw	r14, r18
    1cdc:	c4 1a       	sub	r12, r20
    1cde:	d5 0a       	sbc	r13, r21
    1ce0:	e6 0a       	sbc	r14, r22
    1ce2:	f7 0a       	sbc	r15, r23
    1ce4:	c7 01       	movw	r24, r14
    1ce6:	b6 01       	movw	r22, r12
    1ce8:	28 ec       	ldi	r18, 0xC8	; 200
    1cea:	30 e0       	ldi	r19, 0x00	; 0
    1cec:	40 e0       	ldi	r20, 0x00	; 0
    1cee:	50 e0       	ldi	r21, 0x00	; 0
    1cf0:	0e 94 e9 16 	call	0x2dd2	; 0x2dd2 <__divmodsi4>
    1cf4:	b9 01       	movw	r22, r18
    1cf6:	ce 01       	movw	r24, r28
    1cf8:	0e 94 8c 07 	call	0xf18	; 0xf18 <itoa>
	if(*tds1)
    1cfc:	88 81       	ld	r24, Y
    1cfe:	88 23       	and	r24, r24
    1d00:	19 f0       	breq	.+6      	; 0x1d08 <SET_TDS1+0x5c>
	{
	//	EEPROM_Write_Buf(0x1C, 4 ,tds1);
		pure_water_set(tds1); 
    1d02:	ce 01       	movw	r24, r28
    1d04:	0e 94 5b 0d 	call	0x1ab6	; 0x1ab6 <pure_water_set>
	}
}
    1d08:	df 91       	pop	r29
    1d0a:	cf 91       	pop	r28
    1d0c:	1f 91       	pop	r17
    1d0e:	0f 91       	pop	r16
    1d10:	ff 90       	pop	r15
    1d12:	ef 90       	pop	r14
    1d14:	df 90       	pop	r13
    1d16:	cf 90       	pop	r12
    1d18:	08 95       	ret

00001d1a <SET_TDS2>:
inline void SET_TDS2(unsigned char *tds2)
{
    1d1a:	cf 92       	push	r12
    1d1c:	df 92       	push	r13
    1d1e:	ef 92       	push	r14
    1d20:	ff 92       	push	r15
    1d22:	0f 93       	push	r16
    1d24:	1f 93       	push	r17
    1d26:	cf 93       	push	r28
    1d28:	df 93       	push	r29
    1d2a:	ec 01       	movw	r28, r24
	itoa(tds2,(65536-ADC_Get(7))/200);
    1d2c:	87 e0       	ldi	r24, 0x07	; 7
    1d2e:	90 e0       	ldi	r25, 0x00	; 0
    1d30:	0e 94 84 00 	call	0x108	; 0x108 <ADC_Get>
    1d34:	ac 01       	movw	r20, r24
    1d36:	66 27       	eor	r22, r22
    1d38:	57 fd       	sbrc	r21, 7
    1d3a:	60 95       	com	r22
    1d3c:	76 2f       	mov	r23, r22
    1d3e:	00 e0       	ldi	r16, 0x00	; 0
    1d40:	10 e0       	ldi	r17, 0x00	; 0
    1d42:	21 e0       	ldi	r18, 0x01	; 1
    1d44:	30 e0       	ldi	r19, 0x00	; 0
    1d46:	68 01       	movw	r12, r16
    1d48:	79 01       	movw	r14, r18
    1d4a:	c4 1a       	sub	r12, r20
    1d4c:	d5 0a       	sbc	r13, r21
    1d4e:	e6 0a       	sbc	r14, r22
    1d50:	f7 0a       	sbc	r15, r23
    1d52:	c7 01       	movw	r24, r14
    1d54:	b6 01       	movw	r22, r12
    1d56:	28 ec       	ldi	r18, 0xC8	; 200
    1d58:	30 e0       	ldi	r19, 0x00	; 0
    1d5a:	40 e0       	ldi	r20, 0x00	; 0
    1d5c:	50 e0       	ldi	r21, 0x00	; 0
    1d5e:	0e 94 e9 16 	call	0x2dd2	; 0x2dd2 <__divmodsi4>
    1d62:	b9 01       	movw	r22, r18
    1d64:	ce 01       	movw	r24, r28
    1d66:	0e 94 8c 07 	call	0xf18	; 0xf18 <itoa>
	if(*tds2 )
    1d6a:	88 81       	ld	r24, Y
    1d6c:	88 23       	and	r24, r24
    1d6e:	19 f0       	breq	.+6      	; 0x1d76 <SET_TDS2+0x5c>
	{
		//EEPROM_Write_Buf(0x20, 4 ,tds2);
		raw_water_set(tds2);
    1d70:	ce 01       	movw	r24, r28
    1d72:	0e 94 ac 0d 	call	0x1b58	; 0x1b58 <raw_water_set>
	}

}
    1d76:	df 91       	pop	r29
    1d78:	cf 91       	pop	r28
    1d7a:	1f 91       	pop	r17
    1d7c:	0f 91       	pop	r16
    1d7e:	ff 90       	pop	r15
    1d80:	ef 90       	pop	r14
    1d82:	df 90       	pop	r13
    1d84:	cf 90       	pop	r12
    1d86:	08 95       	ret

00001d88 <LED_Init>:
    1d88:	a0 9a       	sbi	0x14, 0	; 20
    1d8a:	a8 9a       	sbi	0x15, 0	; 21
    1d8c:	08 95       	ret

00001d8e <Port_Init>:
}


void Port_Init(void)
{
		PORTB &= ~(0x01 << PB2);	
    1d8e:	c2 98       	cbi	0x18, 2	; 24
		PORTE &= ~((0x01 << PE7)|(0x01<<PE6));
    1d90:	83 b1       	in	r24, 0x03	; 3
    1d92:	8f 73       	andi	r24, 0x3F	; 63
    1d94:	83 b9       	out	0x03, r24	; 3
	
		PORTB &= ~((0x01 << PB7)|(0x01 << PB6));
    1d96:	88 b3       	in	r24, 0x18	; 24
    1d98:	8f 73       	andi	r24, 0x3F	; 63
    1d9a:	88 bb       	out	0x18, r24	; 24
		DDRB  &= ~((0x01 << PB7)|(0x01 << PB6));
    1d9c:	87 b3       	in	r24, 0x17	; 23
    1d9e:	8f 73       	andi	r24, 0x3F	; 63
    1da0:	87 bb       	out	0x17, r24	; 23
		
		
		DDRB |= (0x01 << PB2) ;
    1da2:	ba 9a       	sbi	0x17, 2	; 23
		PORTB &= ~(0x01 << PB2);
    1da4:	c2 98       	cbi	0x18, 2	; 24
		
		
		DDRE |= (0x01 << PE7)|(0x01<<PE6);
    1da6:	82 b1       	in	r24, 0x02	; 2
    1da8:	80 6c       	ori	r24, 0xC0	; 192
    1daa:	82 b9       	out	0x02, r24	; 2
		PORTE &= ~((0x01 << PE7)|(0x01<<PE6));
    1dac:	83 b1       	in	r24, 0x03	; 3
    1dae:	8f 73       	andi	r24, 0x3F	; 63
    1db0:	83 b9       	out	0x03, r24	; 3
    1db2:	08 95       	ret

00001db4 <zhishui>:
}

void zhishui(void)
{
	PORTE |= (0x01 << PE7);
    1db4:	1f 9a       	sbi	0x03, 7	; 3
	PORTB |= (0x01 << PB2);
    1db6:	c2 9a       	sbi	0x18, 2	; 24
    1db8:	08 95       	ret

00001dba <close_zhishui>:
		
}
void close_zhishui(void)
{
	PORTB &= ~(0x01 << PB2);
    1dba:	c2 98       	cbi	0x18, 2	; 24
	PORTE &= ~(0x01 << PE7);
    1dbc:	1f 98       	cbi	0x03, 7	; 3
    1dbe:	08 95       	ret

00001dc0 <chongxi>:
}

void chongxi(void)
{
		PORTE |=(0x01<<PE6);
    1dc0:	1e 9a       	sbi	0x03, 6	; 3
		zhishui();
    1dc2:	0e 94 da 0e 	call	0x1db4	; 0x1db4 <zhishui>
    1dc6:	08 95       	ret

00001dc8 <close_chongxi>:
}

void close_chongxi(void)
{
		close_zhishui();
    1dc8:	0e 94 dd 0e 	call	0x1dba	; 0x1dba <close_zhishui>
		PORTE &= ~((0x01<<PE6));
    1dcc:	1e 98       	cbi	0x03, 6	; 3
    1dce:	08 95       	ret

00001dd0 <CRC16>:
{
		uchar chCRCHi = 0; // 高CRC字节初始化
		uint chCRC=0;
		uchar wIndex;            // CRC循环中的索引
		uchar n;
		for(n=0;n<wDataLen;n++)//while (wDataLen--)
    1dd0:	44 23       	and	r20, r20
    1dd2:	b9 f0       	breq	.+46     	; 0x1e02 <CRC16+0x32>
    1dd4:	fc 01       	movw	r30, r24
    1dd6:	e6 0f       	add	r30, r22
    1dd8:	f1 1d       	adc	r31, r1
    1dda:	50 e0       	ldi	r21, 0x00	; 0
}
//返回RCR验证码
unsigned int  CRC16(unsigned char *data,uchar addr, uchar wDataLen)
{
		uchar chCRCHi = 0; // 高CRC字节初始化
		uint chCRC=0;
    1ddc:	80 e0       	ldi	r24, 0x00	; 0
    1dde:	90 e0       	ldi	r25, 0x00	; 0
		uchar wIndex;            // CRC循环中的索引
		uchar n;
		for(n=0;n<wDataLen;n++)//while (wDataLen--)
		{ // putchar0(rx1buffer[n+addr1]);
			chCRCHi=chCRC/256;
			wIndex = chCRCHi ^ data[n+addr];
    1de0:	a1 91       	ld	r26, Z+
			chCRC<<=8;
    1de2:	38 2f       	mov	r19, r24
    1de4:	22 27       	eor	r18, r18
		uchar wIndex;            // CRC循环中的索引
		uchar n;
		for(n=0;n<wDataLen;n++)//while (wDataLen--)
		{ // putchar0(rx1buffer[n+addr1]);
			chCRCHi=chCRC/256;
			wIndex = chCRCHi ^ data[n+addr];
    1de6:	a9 27       	eor	r26, r25
			chCRC<<=8;
			chCRC^=TABLE1021[wIndex];
    1de8:	b0 e0       	ldi	r27, 0x00	; 0
    1dea:	aa 0f       	add	r26, r26
    1dec:	bb 1f       	adc	r27, r27
    1dee:	a3 52       	subi	r26, 0x23	; 35
    1df0:	be 4f       	sbci	r27, 0xFE	; 254
    1df2:	8d 91       	ld	r24, X+
    1df4:	9c 91       	ld	r25, X
    1df6:	82 27       	eor	r24, r18
    1df8:	93 27       	eor	r25, r19
{
		uchar chCRCHi = 0; // 高CRC字节初始化
		uint chCRC=0;
		uchar wIndex;            // CRC循环中的索引
		uchar n;
		for(n=0;n<wDataLen;n++)//while (wDataLen--)
    1dfa:	5f 5f       	subi	r21, 0xFF	; 255
    1dfc:	54 13       	cpse	r21, r20
    1dfe:	f0 cf       	rjmp	.-32     	; 0x1de0 <CRC16+0x10>
    1e00:	08 95       	ret
}
//返回RCR验证码
unsigned int  CRC16(unsigned char *data,uchar addr, uchar wDataLen)
{
		uchar chCRCHi = 0; // 高CRC字节初始化
		uint chCRC=0;
    1e02:	80 e0       	ldi	r24, 0x00	; 0
    1e04:	90 e0       	ldi	r25, 0x00	; 0
		//return ((chCRCHi << 8) | chCRCLo);// chCRCLo;//chCRCHi;//
		//DATAlist[0x7b]=chCRC/256;
		//DATAlist[0x7a]=chCRC-(DATAlist[0x7b]*256);
		
		return chCRC;
}
    1e06:	08 95       	ret

00001e08 <Check_CRC16>:
//返回0，验证成功
unsigned int  Check_CRC16(unsigned char *data,unsigned char addr,unsigned char wDataLen)
{
    1e08:	0f 93       	push	r16
    1e0a:	1f 93       	push	r17
    1e0c:	cf 93       	push	r28
    1e0e:	df 93       	push	r29
    1e10:	ec 01       	movw	r28, r24
	
	if(*data )
    1e12:	88 81       	ld	r24, Y
    1e14:	88 23       	and	r24, r24
    1e16:	81 f0       	breq	.+32     	; 0x1e38 <Check_CRC16+0x30>
	{
			unsigned char crc_tmp[10] = {0};
 			unsigned int Rec_Crc = (data[wDataLen ] ) | data[wDataLen + 1 ] << 8;
    1e18:	04 2f       	mov	r16, r20
    1e1a:	10 e0       	ldi	r17, 0x00	; 0
 			unsigned int Crc_val = CRC16(data,addr,wDataLen);
    1e1c:	ce 01       	movw	r24, r28
    1e1e:	0e 94 e8 0e 	call	0x1dd0	; 0x1dd0 <CRC16>
{
	
	if(*data )
	{
			unsigned char crc_tmp[10] = {0};
 			unsigned int Rec_Crc = (data[wDataLen ] ) | data[wDataLen + 1 ] << 8;
    1e22:	c0 0f       	add	r28, r16
    1e24:	d1 1f       	adc	r29, r17
    1e26:	29 81       	ldd	r18, Y+1	; 0x01
    1e28:	30 e0       	ldi	r19, 0x00	; 0
    1e2a:	32 2f       	mov	r19, r18
    1e2c:	22 27       	eor	r18, r18
    1e2e:	48 81       	ld	r20, Y
    1e30:	24 2b       	or	r18, r20
 			unsigned int Crc_val = CRC16(data,addr,wDataLen);
			return (Crc_val^Rec_Crc);
    1e32:	82 27       	eor	r24, r18
    1e34:	93 27       	eor	r25, r19
    1e36:	02 c0       	rjmp	.+4      	; 0x1e3c <Check_CRC16+0x34>
	}
	//LEDOFF;	
	return 1;
    1e38:	81 e0       	ldi	r24, 0x01	; 1
    1e3a:	90 e0       	ldi	r25, 0x00	; 0
    1e3c:	df 91       	pop	r29
    1e3e:	cf 91       	pop	r28
    1e40:	1f 91       	pop	r17
    1e42:	0f 91       	pop	r16
    1e44:	08 95       	ret

00001e46 <Str_Add_Str>:


unsigned char *Str_Add_Str(unsigned char *str1,unsigned char n1,unsigned char *str2,unsigned char n2)
{
	unsigned char i;
	for(i = 0; i < n2; i++)
    1e46:	22 23       	and	r18, r18
    1e48:	61 f0       	breq	.+24     	; 0x1e62 <Str_Add_Str+0x1c>
    1e4a:	74 2f       	mov	r23, r20
    1e4c:	dc 01       	movw	r26, r24
    1e4e:	a6 0f       	add	r26, r22
    1e50:	b1 1d       	adc	r27, r1
    1e52:	e4 2f       	mov	r30, r20
    1e54:	f5 2f       	mov	r31, r21
	{
			str1[n1+i] = str2[i];
    1e56:	31 91       	ld	r19, Z+
    1e58:	3d 93       	st	X+, r19
    1e5a:	3e 2f       	mov	r19, r30
    1e5c:	37 1b       	sub	r19, r23


unsigned char *Str_Add_Str(unsigned char *str1,unsigned char n1,unsigned char *str2,unsigned char n2)
{
	unsigned char i;
	for(i = 0; i < n2; i++)
    1e5e:	32 17       	cp	r19, r18
    1e60:	d0 f3       	brcs	.-12     	; 0x1e56 <Str_Add_Str+0x10>
	{
			str1[n1+i] = str2[i];
	}
		return str1;
}
    1e62:	08 95       	ret

00001e64 <send_data>:


/*   4     2        8      2       len    2         2       */
//数据头+数据长度+设备码+操作码+操作参数+RCR验证码+结束码
static unsigned char * send_data(unsigned char *SendData,unsigned char *Cmd,unsigned char *Parameter,unsigned char len)
{
    1e64:	8f 92       	push	r8
    1e66:	9f 92       	push	r9
    1e68:	af 92       	push	r10
    1e6a:	bf 92       	push	r11
    1e6c:	cf 92       	push	r12
    1e6e:	df 92       	push	r13
    1e70:	ef 92       	push	r14
    1e72:	ff 92       	push	r15
    1e74:	0f 93       	push	r16
    1e76:	1f 93       	push	r17
    1e78:	cf 93       	push	r28
    1e7a:	df 93       	push	r29
    1e7c:	00 d0       	rcall	.+0      	; 0x1e7e <send_data+0x1a>
    1e7e:	00 d0       	rcall	.+0      	; 0x1e80 <send_data+0x1c>
    1e80:	cd b7       	in	r28, 0x3d	; 61
    1e82:	de b7       	in	r29, 0x3e	; 62
    1e84:	8c 01       	movw	r16, r24
    1e86:	5b 01       	movw	r10, r22
    1e88:	6a 01       	movw	r12, r20
    1e8a:	92 2e       	mov	r9, r18
	unsigned char len_tmp[2],rcr_tmp[2];
	unsigned int rcr = 0;
	len_tmp[1] = (16 + len);
    1e8c:	68 94       	set
    1e8e:	88 24       	eor	r8, r8
    1e90:	84 f8       	bld	r8, 4
    1e92:	82 0e       	add	r8, r18
    1e94:	8a 82       	std	Y+2, r8	; 0x02
	len_tmp[0] = (16 + len) >> 8;
    1e96:	e2 2e       	mov	r14, r18
    1e98:	f1 2c       	mov	r15, r1
    1e9a:	80 e1       	ldi	r24, 0x10	; 16
    1e9c:	e8 0e       	add	r14, r24
    1e9e:	f1 1c       	adc	r15, r1
    1ea0:	f9 82       	std	Y+1, r15	; 0x01

	Str_Add_Str(SendData, 0, Heart, 4);
    1ea2:	24 e0       	ldi	r18, 0x04	; 4
    1ea4:	48 ee       	ldi	r20, 0xE8	; 232
    1ea6:	53 e0       	ldi	r21, 0x03	; 3
    1ea8:	60 e0       	ldi	r22, 0x00	; 0
    1eaa:	c8 01       	movw	r24, r16
    1eac:	0e 94 23 0f 	call	0x1e46	; 0x1e46 <Str_Add_Str>
	
	//strncat(SendData , len_tmp , 1);
	Str_Add_Str(SendData, 4,len_tmp, 2);
    1eb0:	22 e0       	ldi	r18, 0x02	; 2
    1eb2:	ae 01       	movw	r20, r28
    1eb4:	4f 5f       	subi	r20, 0xFF	; 255
    1eb6:	5f 4f       	sbci	r21, 0xFF	; 255
    1eb8:	64 e0       	ldi	r22, 0x04	; 4
    1eba:	c8 01       	movw	r24, r16
    1ebc:	0e 94 23 0f 	call	0x1e46	; 0x1e46 <Str_Add_Str>
	//USART0_Transmit_nChar(SendData,6);
	//strncat(SendData , Device, 8);
	Str_Add_Str(SendData, 6,Device, 8);
    1ec0:	28 e0       	ldi	r18, 0x08	; 8
    1ec2:	4d ed       	ldi	r20, 0xDD	; 221
    1ec4:	53 e0       	ldi	r21, 0x03	; 3
    1ec6:	66 e0       	ldi	r22, 0x06	; 6
    1ec8:	c8 01       	movw	r24, r16
    1eca:	0e 94 23 0f 	call	0x1e46	; 0x1e46 <Str_Add_Str>
	//USART0_Transmit_nChar(SendData,14);
	//strncat(SendData , Cmd , 2);
	Str_Add_Str(SendData, 14,Cmd, 2);
    1ece:	22 e0       	ldi	r18, 0x02	; 2
    1ed0:	a5 01       	movw	r20, r10
    1ed2:	6e e0       	ldi	r22, 0x0E	; 14
    1ed4:	c8 01       	movw	r24, r16
    1ed6:	0e 94 23 0f 	call	0x1e46	; 0x1e46 <Str_Add_Str>
	//USART0_Transmit_nChar(SendData,16);
	//strncat(SendData , Parameter, len);
	Str_Add_Str(SendData, 16,Parameter, len);
    1eda:	29 2d       	mov	r18, r9
    1edc:	a6 01       	movw	r20, r12
    1ede:	60 e1       	ldi	r22, 0x10	; 16
    1ee0:	c8 01       	movw	r24, r16
    1ee2:	0e 94 23 0f 	call	0x1e46	; 0x1e46 <Str_Add_Str>
	//USART0_Transmit_nChar(SendData,16+len);
	//USART0_Transmit_String(Parameter);
	//rcr验证的长度是16+len
	rcr = CRC16( SendData,0, 16 + len);
    1ee6:	a7 01       	movw	r20, r14
    1ee8:	60 e0       	ldi	r22, 0x00	; 0
    1eea:	70 e0       	ldi	r23, 0x00	; 0
    1eec:	c8 01       	movw	r24, r16
    1eee:	0e 94 e8 0e 	call	0x1dd0	; 0x1dd0 <CRC16>
	rcr_tmp[0] = rcr  ;//0是低位
    1ef2:	8b 83       	std	Y+3, r24	; 0x03
	rcr_tmp[1] = rcr >> 8;//1是高位
    1ef4:	9c 83       	std	Y+4, r25	; 0x04
	//USART0_Transmit_nChar(rcr_tmp,2);
	//USART0_Transmit_String("send_data\r\nAAAAAA");
	//USART0_Transmit_nChar(rcr_tmp,2);
	//USART0_Transmit_nChar(SendData,16 + len);
	Str_Add_Str(SendData, 16+len,rcr_tmp, 2);
    1ef6:	22 e0       	ldi	r18, 0x02	; 2
    1ef8:	ae 01       	movw	r20, r28
    1efa:	4d 5f       	subi	r20, 0xFD	; 253
    1efc:	5f 4f       	sbci	r21, 0xFF	; 255
    1efe:	68 2d       	mov	r22, r8
    1f00:	c8 01       	movw	r24, r16
    1f02:	0e 94 23 0f 	call	0x1e46	; 0x1e46 <Str_Add_Str>

	Str_Add_Str(SendData ,18+len, Tail , 2);
    1f06:	62 e1       	ldi	r22, 0x12	; 18
    1f08:	69 0d       	add	r22, r9
    1f0a:	22 e0       	ldi	r18, 0x02	; 2
    1f0c:	46 ee       	ldi	r20, 0xE6	; 230
    1f0e:	53 e0       	ldi	r21, 0x03	; 3
    1f10:	c8 01       	movw	r24, r16
    1f12:	0e 94 23 0f 	call	0x1e46	; 0x1e46 <Str_Add_Str>
 //	if(!Check_CRC16(SendData,0,16+len))
 //			BEEP(10);
	//USART0_Transmit_nChar(SendData,20+len);
	//USART0_Transmit_nChar(SendData,20 + len);
	return SendData;
}
    1f16:	c8 01       	movw	r24, r16
    1f18:	0f 90       	pop	r0
    1f1a:	0f 90       	pop	r0
    1f1c:	0f 90       	pop	r0
    1f1e:	0f 90       	pop	r0
    1f20:	df 91       	pop	r29
    1f22:	cf 91       	pop	r28
    1f24:	1f 91       	pop	r17
    1f26:	0f 91       	pop	r16
    1f28:	ff 90       	pop	r15
    1f2a:	ef 90       	pop	r14
    1f2c:	df 90       	pop	r13
    1f2e:	cf 90       	pop	r12
    1f30:	bf 90       	pop	r11
    1f32:	af 90       	pop	r10
    1f34:	9f 90       	pop	r9
    1f36:	8f 90       	pop	r8
    1f38:	08 95       	ret

00001f3a <Send_Cmd_Parameter>:
	//USART0_Transmit_nChar(SendData,22);
	return (GPRS_Send_Data(SendData,22,Ack));
}

unsigned char  Send_Cmd_Parameter(unsigned char *Cmd,unsigned char *Parameter,unsigned char P_Len,unsigned char *Ack)
{
    1f3a:	df 92       	push	r13
    1f3c:	ef 92       	push	r14
    1f3e:	ff 92       	push	r15
    1f40:	0f 93       	push	r16
    1f42:	1f 93       	push	r17
    1f44:	cf 93       	push	r28
    1f46:	df 93       	push	r29
    1f48:	cd b7       	in	r28, 0x3d	; 61
    1f4a:	de b7       	in	r29, 0x3e	; 62
    1f4c:	c4 56       	subi	r28, 0x64	; 100
    1f4e:	d1 09       	sbc	r29, r1
    1f50:	0f b6       	in	r0, 0x3f	; 63
    1f52:	f8 94       	cli
    1f54:	de bf       	out	0x3e, r29	; 62
    1f56:	0f be       	out	0x3f, r0	; 63
    1f58:	cd bf       	out	0x3d, r28	; 61
    1f5a:	d4 2e       	mov	r13, r20
    1f5c:	79 01       	movw	r14, r18
	//LEDON;
		//SendData 的长度等于20+len
		unsigned char SendData[100] = {0};
    1f5e:	8e 01       	movw	r16, r28
    1f60:	0f 5f       	subi	r16, 0xFF	; 255
    1f62:	1f 4f       	sbci	r17, 0xFF	; 255
    1f64:	24 e6       	ldi	r18, 0x64	; 100
    1f66:	f8 01       	movw	r30, r16
    1f68:	11 92       	st	Z+, r1
    1f6a:	2a 95       	dec	r18
    1f6c:	e9 f7       	brne	.-6      	; 0x1f68 <Send_Cmd_Parameter+0x2e>
		unsigned char len = 0;
		send_data(SendData,Cmd,Parameter,P_Len);
    1f6e:	24 2f       	mov	r18, r20
    1f70:	ab 01       	movw	r20, r22
    1f72:	bc 01       	movw	r22, r24
    1f74:	c8 01       	movw	r24, r16
    1f76:	0e 94 32 0f 	call	0x1e64	; 0x1e64 <send_data>
		
		len = (ShortTurl(SendData,20+P_Len,Ack));
    1f7a:	6d 2d       	mov	r22, r13
    1f7c:	70 e0       	ldi	r23, 0x00	; 0
    1f7e:	6c 5e       	subi	r22, 0xEC	; 236
    1f80:	7f 4f       	sbci	r23, 0xFF	; 255
    1f82:	a7 01       	movw	r20, r14
    1f84:	c8 01       	movw	r24, r16
    1f86:	0e 94 a0 07 	call	0xf40	; 0xf40 <ShortTurl>
		//memset(Ack,0,sizeof(Ack));
// 		if(len)
// 			USART0_Transmit_nChar(Ack,len);
		return len;
//		return 1;
}
    1f8a:	cc 59       	subi	r28, 0x9C	; 156
    1f8c:	df 4f       	sbci	r29, 0xFF	; 255
    1f8e:	0f b6       	in	r0, 0x3f	; 63
    1f90:	f8 94       	cli
    1f92:	de bf       	out	0x3e, r29	; 62
    1f94:	0f be       	out	0x3f, r0	; 63
    1f96:	cd bf       	out	0x3d, r28	; 61
    1f98:	df 91       	pop	r29
    1f9a:	cf 91       	pop	r28
    1f9c:	1f 91       	pop	r17
    1f9e:	0f 91       	pop	r16
    1fa0:	ff 90       	pop	r15
    1fa2:	ef 90       	pop	r14
    1fa4:	df 90       	pop	r13
    1fa6:	08 95       	ret

00001fa8 <GET_Parameter>:

unsigned char GET_Parameter(unsigned char *Cmd,unsigned char *Parameter,unsigned char P_Len,unsigned char *Ack_Parameter)
{
    1fa8:	ff 92       	push	r15
    1faa:	0f 93       	push	r16
    1fac:	1f 93       	push	r17
    1fae:	cf 93       	push	r28
    1fb0:	df 93       	push	r29
    1fb2:	cd b7       	in	r28, 0x3d	; 61
    1fb4:	de b7       	in	r29, 0x3e	; 62
    1fb6:	c4 56       	subi	r28, 0x64	; 100
    1fb8:	d1 09       	sbc	r29, r1
    1fba:	0f b6       	in	r0, 0x3f	; 63
    1fbc:	f8 94       	cli
    1fbe:	de bf       	out	0x3e, r29	; 62
    1fc0:	0f be       	out	0x3f, r0	; 63
    1fc2:	cd bf       	out	0x3d, r28	; 61
    1fc4:	89 01       	movw	r16, r18
	unsigned char Ack[100],Ack_len = 0;
	Ack_len = Send_Cmd_Parameter(Cmd,Parameter,P_Len,Ack);
    1fc6:	9e 01       	movw	r18, r28
    1fc8:	2f 5f       	subi	r18, 0xFF	; 255
    1fca:	3f 4f       	sbci	r19, 0xFF	; 255
    1fcc:	0e 94 9d 0f 	call	0x1f3a	; 0x1f3a <Send_Cmd_Parameter>
	//LEDON;
	
	if(Ack_len > 20)
    1fd0:	85 31       	cpi	r24, 0x15	; 21
    1fd2:	70 f0       	brcs	.+28     	; 0x1ff0 <GET_Parameter+0x48>
	{
		//LEDOFF;
		//USART0_Transmit_nChar(Ack,Ack_len);
		Str_Add_Str(Ack_Parameter,0,&Ack[16],Ack_len-20);
    1fd4:	0f 2e       	mov	r0, r31
    1fd6:	fc ee       	ldi	r31, 0xEC	; 236
    1fd8:	ff 2e       	mov	r15, r31
    1fda:	f0 2d       	mov	r31, r0
    1fdc:	f8 0e       	add	r15, r24
    1fde:	2f 2d       	mov	r18, r15
    1fe0:	ae 01       	movw	r20, r28
    1fe2:	4f 5e       	subi	r20, 0xEF	; 239
    1fe4:	5f 4f       	sbci	r21, 0xFF	; 255
    1fe6:	60 e0       	ldi	r22, 0x00	; 0
    1fe8:	c8 01       	movw	r24, r16
    1fea:	0e 94 23 0f 	call	0x1e46	; 0x1e46 <Str_Add_Str>
		return (Ack_len-20);
    1fee:	01 c0       	rjmp	.+2      	; 0x1ff2 <GET_Parameter+0x4a>
	}
	//while(1);
	
	return 0;
    1ff0:	f1 2c       	mov	r15, r1
}
    1ff2:	8f 2d       	mov	r24, r15
    1ff4:	cc 59       	subi	r28, 0x9C	; 156
    1ff6:	df 4f       	sbci	r29, 0xFF	; 255
    1ff8:	0f b6       	in	r0, 0x3f	; 63
    1ffa:	f8 94       	cli
    1ffc:	de bf       	out	0x3e, r29	; 62
    1ffe:	0f be       	out	0x3f, r0	; 63
    2000:	cd bf       	out	0x3d, r28	; 61
    2002:	df 91       	pop	r29
    2004:	cf 91       	pop	r28
    2006:	1f 91       	pop	r17
    2008:	0f 91       	pop	r16
    200a:	ff 90       	pop	r15
    200c:	08 95       	ret

0000200e <GET_CMD>:
	}
	return 1;
}

unsigned int GET_CMD(unsigned char *Parameter)
{
    200e:	cf 93       	push	r28
    2010:	df 93       	push	r29
    2012:	00 d0       	rcall	.+0      	; 0x2014 <GET_CMD+0x6>
    2014:	00 d0       	rcall	.+0      	; 0x2016 <GET_CMD+0x8>
    2016:	00 d0       	rcall	.+0      	; 0x2018 <GET_CMD+0xa>
    2018:	cd b7       	in	r28, 0x3d	; 61
    201a:	de b7       	in	r29, 0x3e	; 62
	
	unsigned char Cmd[2] = {0x00,0x09};
    201c:	19 82       	std	Y+1, r1	; 0x01
    201e:	29 e0       	ldi	r18, 0x09	; 9
    2020:	2a 83       	std	Y+2, r18	; 0x02
	unsigned char GET_cmd[4] = {0};	
    2022:	1b 82       	std	Y+3, r1	; 0x03
    2024:	1c 82       	std	Y+4, r1	; 0x04
    2026:	1d 82       	std	Y+5, r1	; 0x05
    2028:	1e 82       	std	Y+6, r1	; 0x06
	unsigned int deal_cmd = 0xFFFF;	
//	memset(GET_cmd,1,4);
	if(GET_Parameter(Cmd,Parameter,sizeof(Parameter),GET_cmd))
    202a:	9e 01       	movw	r18, r28
    202c:	2d 5f       	subi	r18, 0xFD	; 253
    202e:	3f 4f       	sbci	r19, 0xFF	; 255
    2030:	42 e0       	ldi	r20, 0x02	; 2
    2032:	bc 01       	movw	r22, r24
    2034:	ce 01       	movw	r24, r28
    2036:	01 96       	adiw	r24, 0x01	; 1
    2038:	0e 94 d4 0f 	call	0x1fa8	; 0x1fa8 <GET_Parameter>
    203c:	88 23       	and	r24, r24
    203e:	39 f0       	breq	.+14     	; 0x204e <GET_CMD+0x40>
//		LEDON ;
		//USART0_Transmit_nChar(GET_cmd,2);
// 		USART0_Transmit_String("----------------------");
// 		USART0_Transmit(GET_cmd[0]);
// 		USART0_Transmit(GET_cmd[1]);
		deal_cmd = (GET_cmd[0]<<8)|GET_cmd[1];		
    2040:	8b 81       	ldd	r24, Y+3	; 0x03
    2042:	90 e0       	ldi	r25, 0x00	; 0
    2044:	98 2f       	mov	r25, r24
    2046:	88 27       	eor	r24, r24
    2048:	2c 81       	ldd	r18, Y+4	; 0x04
    204a:	82 2b       	or	r24, r18
    204c:	02 c0       	rjmp	.+4      	; 0x2052 <GET_CMD+0x44>
unsigned int GET_CMD(unsigned char *Parameter)
{
	
	unsigned char Cmd[2] = {0x00,0x09};
	unsigned char GET_cmd[4] = {0};	
	unsigned int deal_cmd = 0xFFFF;	
    204e:	8f ef       	ldi	r24, 0xFF	; 255
    2050:	9f ef       	ldi	r25, 0xFF	; 255
// 		USART0_Transmit(GET_cmd[0]);
// 		USART0_Transmit(GET_cmd[1]);
		deal_cmd = (GET_cmd[0]<<8)|GET_cmd[1];		
	}
	return deal_cmd;
}
    2052:	26 96       	adiw	r28, 0x06	; 6
    2054:	0f b6       	in	r0, 0x3f	; 63
    2056:	f8 94       	cli
    2058:	de bf       	out	0x3e, r29	; 62
    205a:	0f be       	out	0x3f, r0	; 63
    205c:	cd bf       	out	0x3d, r28	; 61
    205e:	df 91       	pop	r29
    2060:	cf 91       	pop	r28
    2062:	08 95       	ret

00002064 <ERROR_HYDROPENIA>:

unsigned char ERROR_HYDROPENIA(void)//缺水错误
{
    2064:	cf 93       	push	r28
    2066:	df 93       	push	r29
    2068:	00 d0       	rcall	.+0      	; 0x206a <ERROR_HYDROPENIA+0x6>
    206a:	00 d0       	rcall	.+0      	; 0x206c <ERROR_HYDROPENIA+0x8>
    206c:	00 d0       	rcall	.+0      	; 0x206e <ERROR_HYDROPENIA+0xa>
    206e:	cd b7       	in	r28, 0x3d	; 61
    2070:	de b7       	in	r29, 0x3e	; 62
	unsigned char Cmd[2] = {0x00,0x04};
    2072:	19 82       	std	Y+1, r1	; 0x01
    2074:	84 e0       	ldi	r24, 0x04	; 4
    2076:	8a 83       	std	Y+2, r24	; 0x02
	unsigned char Parameter[3]={0x00,0x00,0x02};
    2078:	1b 82       	std	Y+3, r1	; 0x03
    207a:	1c 82       	std	Y+4, r1	; 0x04
    207c:	82 e0       	ldi	r24, 0x02	; 2
    207e:	8d 83       	std	Y+5, r24	; 0x05
	unsigned char error = 0xFF;				
    2080:	8f ef       	ldi	r24, 0xFF	; 255
    2082:	8e 83       	std	Y+6, r24	; 0x06
	GET_Parameter(Cmd,Parameter,sizeof(Parameter),&error);
    2084:	9e 01       	movw	r18, r28
    2086:	2a 5f       	subi	r18, 0xFA	; 250
    2088:	3f 4f       	sbci	r19, 0xFF	; 255
    208a:	43 e0       	ldi	r20, 0x03	; 3
    208c:	be 01       	movw	r22, r28
    208e:	6d 5f       	subi	r22, 0xFD	; 253
    2090:	7f 4f       	sbci	r23, 0xFF	; 255
    2092:	ce 01       	movw	r24, r28
    2094:	01 96       	adiw	r24, 0x01	; 1
    2096:	0e 94 d4 0f 	call	0x1fa8	; 0x1fa8 <GET_Parameter>
	return error;
}
    209a:	8e 81       	ldd	r24, Y+6	; 0x06
    209c:	26 96       	adiw	r28, 0x06	; 6
    209e:	0f b6       	in	r0, 0x3f	; 63
    20a0:	f8 94       	cli
    20a2:	de bf       	out	0x3e, r29	; 62
    20a4:	0f be       	out	0x3f, r0	; 63
    20a6:	cd bf       	out	0x3d, r28	; 61
    20a8:	df 91       	pop	r29
    20aa:	cf 91       	pop	r28
    20ac:	08 95       	ret

000020ae <ERROR_LEAKAGE>:
	GET_Parameter(Cmd,Parameter,sizeof(Parameter),&error);
	return error;
}

unsigned char ERROR_LEAKAGE(void)//漏水错误
{
    20ae:	cf 93       	push	r28
    20b0:	df 93       	push	r29
    20b2:	00 d0       	rcall	.+0      	; 0x20b4 <ERROR_LEAKAGE+0x6>
    20b4:	00 d0       	rcall	.+0      	; 0x20b6 <ERROR_LEAKAGE+0x8>
    20b6:	00 d0       	rcall	.+0      	; 0x20b8 <ERROR_LEAKAGE+0xa>
    20b8:	cd b7       	in	r28, 0x3d	; 61
    20ba:	de b7       	in	r29, 0x3e	; 62
	unsigned char Parameter[]={0x10,0x00,0x00};
    20bc:	80 e1       	ldi	r24, 0x10	; 16
    20be:	89 83       	std	Y+1, r24	; 0x01
    20c0:	1a 82       	std	Y+2, r1	; 0x02
    20c2:	1b 82       	std	Y+3, r1	; 0x03
	unsigned char Cmd[] = {0x00,0x04};	
    20c4:	1c 82       	std	Y+4, r1	; 0x04
    20c6:	84 e0       	ldi	r24, 0x04	; 4
    20c8:	8d 83       	std	Y+5, r24	; 0x05
	unsigned char error = 0xFF;				
    20ca:	8f ef       	ldi	r24, 0xFF	; 255
    20cc:	8e 83       	std	Y+6, r24	; 0x06
	(GET_Parameter(Cmd,Parameter,sizeof(Parameter),&error));
    20ce:	9e 01       	movw	r18, r28
    20d0:	2a 5f       	subi	r18, 0xFA	; 250
    20d2:	3f 4f       	sbci	r19, 0xFF	; 255
    20d4:	43 e0       	ldi	r20, 0x03	; 3
    20d6:	be 01       	movw	r22, r28
    20d8:	6f 5f       	subi	r22, 0xFF	; 255
    20da:	7f 4f       	sbci	r23, 0xFF	; 255
    20dc:	ce 01       	movw	r24, r28
    20de:	04 96       	adiw	r24, 0x04	; 4
    20e0:	0e 94 d4 0f 	call	0x1fa8	; 0x1fa8 <GET_Parameter>
	return error;

	//return ERROR_SEND();
}
    20e4:	8e 81       	ldd	r24, Y+6	; 0x06
    20e6:	26 96       	adiw	r28, 0x06	; 6
    20e8:	0f b6       	in	r0, 0x3f	; 63
    20ea:	f8 94       	cli
    20ec:	de bf       	out	0x3e, r29	; 62
    20ee:	0f be       	out	0x3f, r0	; 63
    20f0:	cd bf       	out	0x3d, r28	; 61
    20f2:	df 91       	pop	r29
    20f4:	cf 91       	pop	r28
    20f6:	08 95       	ret

000020f8 <Time0_Init>:
*time0 是8位定时器
*/
void Time0_Init(void)// 10ms
{
	
	TCCR0 = 0x00; //初始化Time0控制寄存器
    20f8:	13 be       	out	0x33, r1	; 51
														//(0x94)
	TCNT0 = 0x94; //Time=PRE*(MAX-TCNT0+1)/F_cpu=1024*(255-148+1)/11.0592MHz=10ms
    20fa:	84 e9       	ldi	r24, 0x94	; 148
    20fc:	82 bf       	out	0x32, r24	; 50
	//TCNT0 = 0x28;
	
	OCR0  = 0x95; //比较寄存器
    20fe:	85 e9       	ldi	r24, 0x95	; 149
    2100:	81 bf       	out	0x31, r24	; 49
	
	TCCR0 |= 0x07; //启动定时器，普通模式，1024分频，不与OC0连接
    2102:	83 b7       	in	r24, 0x33	; 51
    2104:	87 60       	ori	r24, 0x07	; 7
    2106:	83 bf       	out	0x33, r24	; 51
	
	TIMSK |= (0x01<<TOIE0)|(0x01<<OCIE0);//比较中断和溢出中断允许
    2108:	87 b7       	in	r24, 0x37	; 55
    210a:	83 60       	ori	r24, 0x03	; 3
    210c:	87 bf       	out	0x37, r24	; 55
    210e:	08 95       	ret

00002110 <Time1_Port>:
/*
*time1 是16位定时器
*/
void Time1_Port(void)
{
	PORTD |= (0x1<<PD6);
    2110:	96 9a       	sbi	0x12, 6	; 18
	DDRD  &= ~(0x1<<PD6);
    2112:	8e 98       	cbi	0x11, 6	; 17
    2114:	08 95       	ret

00002116 <Time1_Config>:
	
}

void Time1_Config(void)
{
	TCCR1A = 0x00;//通道
    2116:	1f bc       	out	0x2f, r1	; 47
//	TCCR1B |= 0x05;//时钟(1024分频)
	
//	TCCR1B |= (0x01<<CS12)|(0x01<<CS11)|(0x01<<CS10);//上升沿触发
	
	
 	OCR1A = 0;
    2118:	1b bc       	out	0x2b, r1	; 43
    211a:	1a bc       	out	0x2a, r1	; 42
 	OCR1B = 0;
    211c:	19 bc       	out	0x29, r1	; 41
    211e:	18 bc       	out	0x28, r1	; 40
 	OCR1C = 0;
    2120:	10 92 79 00 	sts	0x0079, r1
    2124:	10 92 78 00 	sts	0x0078, r1
	
	//Time=PRE*(MAX-TCNT0+1)/F_cpu=1024*(65535-148+1)/11.0592MHz=10ms
//	TCNT1H = 0xEC;
//	TCNT1L = 0x78;
	
	TCNT1H = 0x00;
    2128:	1d bc       	out	0x2d, r1	; 45
	TCNT1L = 0x00;
    212a:	1c bc       	out	0x2c, r1	; 44
	
 	ICR1H = 0xFF;
    212c:	8f ef       	ldi	r24, 0xFF	; 255
    212e:	87 bd       	out	0x27, r24	; 39
 	ICR1L = 0xFF;
    2130:	86 bd       	out	0x26, r24	; 38
	
	TIMSK |= (0x01<< TOIE1);
    2132:	87 b7       	in	r24, 0x37	; 55
    2134:	84 60       	ori	r24, 0x04	; 4
    2136:	87 bf       	out	0x37, r24	; 55
    2138:	08 95       	ret

0000213a <Time1_Init>:
	//ETIMSK |= 0x00;
}
void Time1_Init(void)
{
	Time1_Port();
    213a:	0e 94 88 10 	call	0x2110	; 0x2110 <Time1_Port>
	Time1_Config();
    213e:	0e 94 8b 10 	call	0x2116	; 0x2116 <Time1_Config>
    2142:	08 95       	ret

00002144 <Time1_Start>:
}
void Time1_Start(void)
{
	TCCR1A = 0x00;
    2144:	1f bc       	out	0x2f, r1	; 47

	
	TCCR1B |= (0x01<<CS12)|(0x01<<CS11)|(0x01<<CS10);//上升沿触发
    2146:	8e b5       	in	r24, 0x2e	; 46
    2148:	87 60       	ori	r24, 0x07	; 7
    214a:	8e bd       	out	0x2e, r24	; 46
    214c:	08 95       	ret

0000214e <Time1_Stop>:
}
void Time1_Stop(void)
{
	TCCR1B &= ~((0x01<<CS12)|(0x01<<CS11)|(0x01<<CS10));//上升沿触发
    214e:	8e b5       	in	r24, 0x2e	; 46
    2150:	88 7f       	andi	r24, 0xF8	; 248
    2152:	8e bd       	out	0x2e, r24	; 46
	TCNT1H = 0x00;
    2154:	1d bc       	out	0x2d, r1	; 45
	TCNT1L = 0x00;
    2156:	1c bc       	out	0x2c, r1	; 44
	flow_ovf_flag = 0;
    2158:	10 92 bb 04 	sts	0x04BB, r1
    215c:	08 95       	ret

0000215e <Time1_Get_TCNT>:
}
unsigned int  Time1_Get_TCNT(void)
{
	unsigned int tmp = 0;
	tmp = TCNT1H;
    215e:	8d b5       	in	r24, 0x2d	; 45
	
	tmp <<= 8;
	tmp |= TCNT1L;
    2160:	8c b5       	in	r24, 0x2c	; 44
	//USART0_Transmit(tmp);
	//USART0_Transmit(tmp>>8);
	return TCNT1;
    2162:	8c b5       	in	r24, 0x2c	; 44
    2164:	9d b5       	in	r25, 0x2d	; 45
}
    2166:	08 95       	ret

00002168 <Time2_Init>:
*time2 是8位定时器
*/
void Time2_Init(void)//20ms
{
		
	TCCR2 = 0x00; //初始化Time0控制寄存器
    2168:	15 bc       	out	0x25, r1	; 37
														//(0x94)
	TCNT2 = 0x28; //Time=PRE*(MAX-TCNT0+1)/F_cpu=1024*(255-148+1)/11.0592MHz=10ms
    216a:	88 e2       	ldi	r24, 0x28	; 40
    216c:	84 bd       	out	0x24, r24	; 36
	
	OCR2  = 0xFF; //比较寄存器
    216e:	8f ef       	ldi	r24, 0xFF	; 255
    2170:	83 bd       	out	0x23, r24	; 35
    2172:	08 95       	ret

00002174 <Time2_Start>:
	//TIMSK |= (0x01<<TOIE2)|(0x01<<OCIE2);//比较中断和溢出中断允许
}

void Time2_Start(void)
{
	TCCR2 |= 0x05; //启动定时器，普通模式，1024分频，不与OC0连接
    2174:	85 b5       	in	r24, 0x25	; 37
    2176:	85 60       	ori	r24, 0x05	; 5
    2178:	85 bd       	out	0x25, r24	; 37
	TIMSK |= (0x01<<TOIE2)|(0x01<<OCIE2);//比较中断和溢出中断允许
    217a:	87 b7       	in	r24, 0x37	; 55
    217c:	80 6c       	ori	r24, 0xC0	; 192
    217e:	87 bf       	out	0x37, r24	; 55
    2180:	08 95       	ret

00002182 <Time2_Stop>:
{
	return (TCCR2 & 0x07);
}
void Time2_Stop(void)
{
	TCCR2 &= ~(0x05); //启动定时器，普通模式，1024分频，不与OC0连接
    2182:	85 b5       	in	r24, 0x25	; 37
    2184:	8a 7f       	andi	r24, 0xFA	; 250
    2186:	85 bd       	out	0x25, r24	; 37
	TIMSK &= ~((0x01<<TOIE2)|(0x01<<OCIE2));//比较中断和溢出中断允许
    2188:	87 b7       	in	r24, 0x37	; 55
    218a:	8f 73       	andi	r24, 0x3F	; 63
    218c:	87 bf       	out	0x37, r24	; 55
    218e:	08 95       	ret

00002190 <Time3_Init>:
/*
*time3 是16位定时器
*/
void Time3_Init(void)//1s延时
{
	TCCR3A = 0x00;//通道
    2190:	10 92 8b 00 	sts	0x008B, r1
	
	//Time=PRE*(MAX-TCNT0+1)/F_cpu=1024*(65535-148+1)/11.0592MHz=10ms
//	TCNT3H = 0xFF;
//	TCNT3L = 0x94;
	
	TCNT3H = 0xFB;
    2194:	8b ef       	ldi	r24, 0xFB	; 251
    2196:	80 93 89 00 	sts	0x0089, r24
	TCNT3L = 0xC8;
    219a:	88 ec       	ldi	r24, 0xC8	; 200
    219c:	80 93 88 00 	sts	0x0088, r24
    21a0:	08 95       	ret

000021a2 <Time3_Start>:
//	ETIMSK |= 0x01 << TOIE3;
}

void Time3_Start(void)
{
	TCCR3B |= 0x05;//时钟(1024分频)
    21a2:	ea e8       	ldi	r30, 0x8A	; 138
    21a4:	f0 e0       	ldi	r31, 0x00	; 0
    21a6:	80 81       	ld	r24, Z
    21a8:	85 60       	ori	r24, 0x05	; 5
    21aa:	80 83       	st	Z, r24
	ETIMSK |= 0x01 << TOIE3;	
    21ac:	ed e7       	ldi	r30, 0x7D	; 125
    21ae:	f0 e0       	ldi	r31, 0x00	; 0
    21b0:	80 81       	ld	r24, Z
    21b2:	84 60       	ori	r24, 0x04	; 4
    21b4:	80 83       	st	Z, r24
    21b6:	08 95       	ret

000021b8 <Time3_Stop>:
}
void Time3_Stop(void)
{
	TCCR3B &= ~(0x05);//时钟(1024分频)
    21b8:	ea e8       	ldi	r30, 0x8A	; 138
    21ba:	f0 e0       	ldi	r31, 0x00	; 0
    21bc:	80 81       	ld	r24, Z
    21be:	8a 7f       	andi	r24, 0xFA	; 250
    21c0:	80 83       	st	Z, r24
	ETIMSK &= ~(0x01 << TOIE3);
    21c2:	ed e7       	ldi	r30, 0x7D	; 125
    21c4:	f0 e0       	ldi	r31, 0x00	; 0
    21c6:	80 81       	ld	r24, Z
    21c8:	8b 7f       	andi	r24, 0xFB	; 251
    21ca:	80 83       	st	Z, r24
    21cc:	08 95       	ret

000021ce <Get_time3_Status>:
	
}

unsigned char Get_time3_Status(void)
{
	return (TCCR3B & 0x07);
    21ce:	80 91 8a 00 	lds	r24, 0x008A
}
    21d2:	87 70       	andi	r24, 0x07	; 7
    21d4:	08 95       	ret

000021d6 <__vector_16>:

//02085238246


SIGNAL(TIMER0_OVF_vect)//定时器T0溢出中断
{
    21d6:	1f 92       	push	r1
    21d8:	0f 92       	push	r0
    21da:	0f b6       	in	r0, 0x3f	; 63
    21dc:	0f 92       	push	r0
    21de:	11 24       	eor	r1, r1
    21e0:	2f 93       	push	r18
    21e2:	3f 93       	push	r19
    21e4:	4f 93       	push	r20
    21e6:	5f 93       	push	r21
    21e8:	6f 93       	push	r22
    21ea:	7f 93       	push	r23
    21ec:	8f 93       	push	r24
    21ee:	9f 93       	push	r25
    21f0:	af 93       	push	r26
    21f2:	bf 93       	push	r27
    21f4:	ef 93       	push	r30
    21f6:	ff 93       	push	r31
	//BEEP(1);
	TCNT0 = 0x94;
    21f8:	84 e9       	ldi	r24, 0x94	; 148
    21fa:	82 bf       	out	0x32, r24	; 50
	//TCNT0 = 0x28;	
	time_10ms ++;
    21fc:	80 91 be 04 	lds	r24, 0x04BE
    2200:	8f 5f       	subi	r24, 0xFF	; 255
	static unsigned char refresh_time = 0;
	
	//if(!(time_10ms%50))
			
	if(time_10ms>25)//500ms更新水滴
    2202:	8a 31       	cpi	r24, 0x1A	; 26
    2204:	18 f4       	brcc	.+6      	; 0x220c <__vector_16+0x36>
SIGNAL(TIMER0_OVF_vect)//定时器T0溢出中断
{
	//BEEP(1);
	TCNT0 = 0x94;
	//TCNT0 = 0x28;	
	time_10ms ++;
    2206:	80 93 be 04 	sts	0x04BE, r24
    220a:	47 c0       	rjmp	.+142    	; 0x229a <__vector_16+0xc4>
	
	//if(!(time_10ms%50))
			
	if(time_10ms>25)//500ms更新水滴
	{
		time_10ms = 0;
    220c:	10 92 be 04 	sts	0x04BE, r1
		TC1RUN;		
    2210:	95 b3       	in	r25, 0x15	; 21
    2212:	80 e4       	ldi	r24, 0x40	; 64
    2214:	89 27       	eor	r24, r25
    2216:	85 bb       	out	0x15, r24	; 21
		if(refresh_time)
    2218:	80 91 90 04 	lds	r24, 0x0490
    221c:	88 23       	and	r24, r24
    221e:	49 f0       	breq	.+18     	; 0x2232 <__vector_16+0x5c>
		{
			if(!(deal_cmd & 0x01 << 12))			
    2220:	80 91 b4 04 	lds	r24, 0x04B4
    2224:	90 91 b5 04 	lds	r25, 0x04B5
    2228:	94 fd       	sbrc	r25, 4
    222a:	12 c0       	rjmp	.+36     	; 0x2250 <__vector_16+0x7a>
				drip();		
    222c:	0e 94 f9 0b 	call	0x17f2	; 0x17f2 <drip>
    2230:	0f c0       	rjmp	.+30     	; 0x2250 <__vector_16+0x7a>
		}
		else
		{
			refresh_time = 6;
    2232:	86 e0       	ldi	r24, 0x06	; 6
    2234:	80 93 90 04 	sts	0x0490, r24
			if(!(deal_cmd & 0x01 << 12))
    2238:	80 91 b4 04 	lds	r24, 0x04B4
    223c:	90 91 b5 04 	lds	r25, 0x04B5
    2240:	94 fd       	sbrc	r25, 4
    2242:	28 c0       	rjmp	.+80     	; 0x2294 <__vector_16+0xbe>
			{
					ico();
    2244:	0e 94 bf 0b 	call	0x177e	; 0x177e <ico>
					signal();	
    2248:	0e 94 7f 0b 	call	0x16fe	; 0x16fe <signal>
					REFRESH_ALLRAM_1726();
    224c:	0e 94 af 0a 	call	0x155e	; 0x155e <REFRESH_ALLRAM_1726>
			}
			

		}
		refresh_time --;
    2250:	80 91 90 04 	lds	r24, 0x0490
    2254:	81 50       	subi	r24, 0x01	; 1
    2256:	80 93 90 04 	sts	0x0490, r24
		if(send_flag == 0)
    225a:	90 91 b6 04 	lds	r25, 0x04B6
    225e:	91 11       	cpse	r25, r1
    2260:	1c c0       	rjmp	.+56     	; 0x229a <__vector_16+0xc4>
			if(!(refresh_time))		//每隔一秒执行一次
    2262:	81 11       	cpse	r24, r1
    2264:	1a c0       	rjmp	.+52     	; 0x229a <__vector_16+0xc4>
			{
				if(!(time_1s % send_time))//设置发送的时间
    2266:	20 91 bc 04 	lds	r18, 0x04BC
    226a:	30 91 bd 04 	lds	r19, 0x04BD
    226e:	60 91 a2 01 	lds	r22, 0x01A2
    2272:	70 91 a3 01 	lds	r23, 0x01A3
    2276:	c9 01       	movw	r24, r18
    2278:	0e 94 d5 16 	call	0x2daa	; 0x2daa <__udivmodhi4>
    227c:	89 2b       	or	r24, r25
    227e:	19 f4       	brne	.+6      	; 0x2286 <__vector_16+0xb0>
					send_flag = 1;		  //发送的标志
    2280:	81 e0       	ldi	r24, 0x01	; 1
    2282:	80 93 b6 04 	sts	0x04B6, r24
				time_1s++;			
    2286:	2f 5f       	subi	r18, 0xFF	; 255
    2288:	3f 4f       	sbci	r19, 0xFF	; 255
    228a:	30 93 bd 04 	sts	0x04BD, r19
    228e:	20 93 bc 04 	sts	0x04BC, r18
    2292:	03 c0       	rjmp	.+6      	; 0x229a <__vector_16+0xc4>
					REFRESH_ALLRAM_1726();
			}
			

		}
		refresh_time --;
    2294:	85 e0       	ldi	r24, 0x05	; 5
    2296:	80 93 90 04 	sts	0x0490, r24
				if(!(time_1s % send_time))//设置发送的时间
					send_flag = 1;		  //发送的标志
				time_1s++;			
			}
	}
}
    229a:	ff 91       	pop	r31
    229c:	ef 91       	pop	r30
    229e:	bf 91       	pop	r27
    22a0:	af 91       	pop	r26
    22a2:	9f 91       	pop	r25
    22a4:	8f 91       	pop	r24
    22a6:	7f 91       	pop	r23
    22a8:	6f 91       	pop	r22
    22aa:	5f 91       	pop	r21
    22ac:	4f 91       	pop	r20
    22ae:	3f 91       	pop	r19
    22b0:	2f 91       	pop	r18
    22b2:	0f 90       	pop	r0
    22b4:	0f be       	out	0x3f, r0	; 63
    22b6:	0f 90       	pop	r0
    22b8:	1f 90       	pop	r1
    22ba:	18 95       	reti

000022bc <__vector_15>:

				
unsigned char zhishui_finish_flag = 0;

SIGNAL(TIMER0_COMP_vect)//定时器T0比较中断
{
    22bc:	1f 92       	push	r1
    22be:	0f 92       	push	r0
    22c0:	0f b6       	in	r0, 0x3f	; 63
    22c2:	0f 92       	push	r0
    22c4:	11 24       	eor	r1, r1
    22c6:	2f 93       	push	r18
    22c8:	3f 93       	push	r19
    22ca:	4f 93       	push	r20
    22cc:	5f 93       	push	r21
    22ce:	6f 93       	push	r22
    22d0:	7f 93       	push	r23
    22d2:	8f 93       	push	r24
    22d4:	9f 93       	push	r25
    22d6:	af 93       	push	r26
    22d8:	bf 93       	push	r27
    22da:	ef 93       	push	r30
    22dc:	ff 93       	push	r31
#if 1
			wdt_reset();//定时500ms喂狗					
    22de:	a8 95       	wdr
			
			//500是漏水灵敏度的设置,越小越灵敏
			if ((ADC_Get(5))< (0xFF60-300))
    22e0:	85 e0       	ldi	r24, 0x05	; 5
    22e2:	90 e0       	ldi	r25, 0x00	; 0
    22e4:	0e 94 84 00 	call	0x108	; 0x108 <ADC_Get>
    22e8:	84 33       	cpi	r24, 0x34	; 52
    22ea:	9e 4f       	sbci	r25, 0xFE	; 254
    22ec:	30 f4       	brcc	.+12     	; 0x22fa <__vector_15+0x3e>
			{
				LCD_Ico |= 0x01 << 5;
    22ee:	80 91 8b 04 	lds	r24, 0x048B
    22f2:	80 62       	ori	r24, 0x20	; 32
    22f4:	80 93 8b 04 	sts	0x048B, r24
    22f8:	05 c0       	rjmp	.+10     	; 0x2304 <__vector_15+0x48>
			}
			else
			{
				LCD_Ico &= ~(0x01 << 5);
    22fa:	80 91 8b 04 	lds	r24, 0x048B
    22fe:	8f 7d       	andi	r24, 0xDF	; 223
    2300:	80 93 8b 04 	sts	0x048B, r24
			}
			//关机的情况漏水会发送信息，可是没有显示
		if (deal_cmd & (0x01 << 12))//关机
    2304:	80 91 b4 04 	lds	r24, 0x04B4
    2308:	90 91 b5 04 	lds	r25, 0x04B5
    230c:	94 ff       	sbrs	r25, 4
    230e:	09 c0       	rjmp	.+18     	; 0x2322 <__vector_15+0x66>
			{
				HT1721C_BL_0;
    2310:	1a 98       	cbi	0x03, 2	; 3
				status[0] &= ~(0x1 << 0);
    2312:	e2 e9       	ldi	r30, 0x92	; 146
    2314:	f4 e0       	ldi	r31, 0x04	; 4
    2316:	80 81       	ld	r24, Z
    2318:	8e 7f       	andi	r24, 0xFE	; 254
    231a:	80 83       	st	Z, r24
				close_chongxi();
    231c:	0e 94 e4 0e 	call	0x1dc8	; 0x1dc8 <close_chongxi>
				return ;
    2320:	c5 c0       	rjmp	.+394    	; 0x24ac <__vector_15+0x1f0>
			}
			else
			{
				HT1721C_BL_1;												
    2322:	1a 9a       	sbi	0x03, 2	; 3
				status[0] |= (0x1 << 0);
    2324:	e2 e9       	ldi	r30, 0x92	; 146
    2326:	f4 e0       	ldi	r31, 0x04	; 4
    2328:	80 81       	ld	r24, Z
    232a:	81 60       	ori	r24, 0x01	; 1
    232c:	80 83       	st	Z, r24
			}
			
			if (deal_cmd & (0x01 << 13))//停机
    232e:	80 91 b4 04 	lds	r24, 0x04B4
    2332:	90 91 b5 04 	lds	r25, 0x04B5
    2336:	95 ff       	sbrs	r25, 5
    2338:	03 c0       	rjmp	.+6      	; 0x2340 <__vector_15+0x84>
			{
				close_chongxi();
    233a:	0e 94 e4 0e 	call	0x1dc8	; 0x1dc8 <close_chongxi>
				return;
    233e:	b6 c0       	rjmp	.+364    	; 0x24ac <__vector_15+0x1f0>
			}

			if (deal_cmd & (0x01 << 15))//租赁时间
    2340:	99 23       	and	r25, r25
    2342:	1c f4       	brge	.+6      	; 0x234a <__vector_15+0x8e>
			{
				close_chongxi();
    2344:	0e 94 e4 0e 	call	0x1dc8	; 0x1dc8 <close_chongxi>
				return ;
    2348:	b1 c0       	rjmp	.+354    	; 0x24ac <__vector_15+0x1f0>
			}

	if(PINB & (0x01 << PB6))//缺水错误发送
    234a:	b6 9b       	sbis	0x16, 6	; 22
    234c:	08 c0       	rjmp	.+16     	; 0x235e <__vector_15+0xa2>
	{
		LCD_Ico |= 0x01 << 4;
    234e:	80 91 8b 04 	lds	r24, 0x048B
    2352:	80 61       	ori	r24, 0x10	; 16
    2354:	80 93 8b 04 	sts	0x048B, r24
		close_chongxi();
    2358:	0e 94 e4 0e 	call	0x1dc8	; 0x1dc8 <close_chongxi>
    235c:	a7 c0       	rjmp	.+334    	; 0x24ac <__vector_15+0x1f0>
	}
	else//	if (!(PINB & 0x01 << PB6))//低压检测
	{
		LCD_Ico &= ~(0x01 << 4);
    235e:	20 91 8b 04 	lds	r18, 0x048B
    2362:	2f 7e       	andi	r18, 0xEF	; 239
    2364:	20 93 8b 04 	sts	0x048B, r18
		if (!(status[1] & (0x01 << 2)))
    2368:	20 91 93 04 	lds	r18, 0x0493
    236c:	22 fd       	sbrc	r18, 2
    236e:	0d c0       	rjmp	.+26     	; 0x238a <__vector_15+0xce>
		{
			if ((deal_cmd & 0x01 << 14))//冲洗
    2370:	96 ff       	sbrs	r25, 6
    2372:	0b c0       	rjmp	.+22     	; 0x238a <__vector_15+0xce>
			{
				Time2_Start();
    2374:	0e 94 ba 10 	call	0x2174	; 0x2174 <Time2_Start>
				//冲洗操作
				//chongxi();		//PORTE |= (0x01 << PE7) | (0x01 << PE6);//电磁阀开
				//PORTB |= (0x01 << PB2);//水泵电机开启
				deal_cmd &= ~(0x01 << 14);
    2378:	80 91 b4 04 	lds	r24, 0x04B4
    237c:	90 91 b5 04 	lds	r25, 0x04B5
    2380:	9f 7b       	andi	r25, 0xBF	; 191
    2382:	90 93 b5 04 	sts	0x04B5, r25
    2386:	80 93 b4 04 	sts	0x04B4, r24
	//LEDON;	
}

unsigned char Get_time2_Status(void)
{
	return (TCCR2 & 0x07);
    238a:	85 b5       	in	r24, 0x25	; 37
    238c:	87 70       	andi	r24, 0x07	; 7
				//chongxi();		//PORTE |= (0x01 << PE7) | (0x01 << PE6);//电磁阀开
				//PORTB |= (0x01 << PB2);//水泵电机开启
				deal_cmd &= ~(0x01 << 14);
			}
		}
		if (Get_time2_Status())//冲洗状态
    238e:	41 f0       	breq	.+16     	; 0x23a0 <__vector_15+0xe4>
		{
			chongxi();
    2390:	0e 94 e0 0e 	call	0x1dc0	; 0x1dc0 <chongxi>
			status[1] |= 0x01 << 4;
    2394:	e3 e9       	ldi	r30, 0x93	; 147
    2396:	f4 e0       	ldi	r31, 0x04	; 4
    2398:	80 81       	ld	r24, Z
    239a:	80 61       	ori	r24, 0x10	; 16
    239c:	80 83       	st	Z, r24
    239e:	86 c0       	rjmp	.+268    	; 0x24ac <__vector_15+0x1f0>
		}
		else
		{
			status[1] &= ~(0x01 << 4);
    23a0:	e3 e9       	ldi	r30, 0x93	; 147
    23a2:	f4 e0       	ldi	r31, 0x04	; 4
    23a4:	80 81       	ld	r24, Z
    23a6:	8f 7e       	andi	r24, 0xEF	; 239
    23a8:	80 83       	st	Z, r24
			if ((PINB & 0x01 << PB7))//制水 流量机//  高压的检测 //制水状态
    23aa:	b7 9b       	sbis	0x16, 7	; 22
    23ac:	10 c0       	rjmp	.+32     	; 0x23ce <__vector_15+0x112>
			{
			//			LEDON;
				PORTD &= ~((0x1 << PD5) | (0x1 << PD4));
    23ae:	82 b3       	in	r24, 0x12	; 18
    23b0:	8f 7c       	andi	r24, 0xCF	; 207
    23b2:	82 bb       	out	0x12, r24	; 18
				status[1] |= 0x01 << 2;
    23b4:	80 81       	ld	r24, Z
    23b6:	84 60       	ori	r24, 0x04	; 4
    23b8:	80 83       	st	Z, r24
			//	time_zhishui = 0;
				Time1_Start();
    23ba:	0e 94 a2 10 	call	0x2144	; 0x2144 <Time1_Start>
				Time3_Start();
    23be:	0e 94 d1 10 	call	0x21a2	; 0x21a2 <Time3_Start>
				zhishui();
    23c2:	0e 94 da 0e 	call	0x1db4	; 0x1db4 <zhishui>
				//LEDRUN;
				zhishui_finish_flag = 1;
    23c6:	81 e0       	ldi	r24, 0x01	; 1
    23c8:	80 93 91 04 	sts	0x0491, r24
    23cc:	6f c0       	rjmp	.+222    	; 0x24ac <__vector_15+0x1f0>
			}
			else if(zhishui_finish_flag)
    23ce:	80 91 91 04 	lds	r24, 0x0491
    23d2:	88 23       	and	r24, r24
    23d4:	09 f4       	brne	.+2      	; 0x23d8 <__vector_15+0x11c>
    23d6:	6a c0       	rjmp	.+212    	; 0x24ac <__vector_15+0x1f0>
			{
				PORTD |= ((0x1 << PD5) | (0x1 << PD4));
    23d8:	82 b3       	in	r24, 0x12	; 18
    23da:	80 63       	ori	r24, 0x30	; 48
    23dc:	82 bb       	out	0x12, r24	; 18
				status[1] &= ~(0x01 << 2);//制水待机状态
    23de:	e3 e9       	ldi	r30, 0x93	; 147
    23e0:	f4 e0       	ldi	r31, 0x04	; 4
    23e2:	80 81       	ld	r24, Z
    23e4:	8b 7f       	andi	r24, 0xFB	; 251
    23e6:	80 83       	st	Z, r24
				close_zhishui();
    23e8:	0e 94 dd 0e 	call	0x1dba	; 0x1dba <close_zhishui>
				//yu_sum_flow = 7;
				//value_flow = 24 + yu_sum_flow ;
				value_flow = Time1_Get_TCNT()+ yu_sum_flow ;
    23ec:	0e 94 af 10 	call	0x215e	; 0x215e <Time1_Get_TCNT>
    23f0:	40 91 ac 04 	lds	r20, 0x04AC
    23f4:	50 91 ad 04 	lds	r21, 0x04AD
    23f8:	48 0f       	add	r20, r24
    23fa:	59 1f       	adc	r21, r25
    23fc:	50 93 af 04 	sts	0x04AF, r21
    2400:	40 93 ae 04 	sts	0x04AE, r20
				sum_flow = sum_flow + value_flow / 10;
    2404:	9a 01       	movw	r18, r20
    2406:	ad ec       	ldi	r26, 0xCD	; 205
    2408:	bc ec       	ldi	r27, 0xCC	; 204
    240a:	0e 94 08 17 	call	0x2e10	; 0x2e10 <__umulhisi3>
    240e:	96 95       	lsr	r25
    2410:	87 95       	ror	r24
    2412:	96 95       	lsr	r25
    2414:	87 95       	ror	r24
    2416:	96 95       	lsr	r25
    2418:	87 95       	ror	r24
    241a:	20 91 b0 04 	lds	r18, 0x04B0
    241e:	30 91 b1 04 	lds	r19, 0x04B1
    2422:	28 0f       	add	r18, r24
    2424:	39 1f       	adc	r19, r25
    2426:	30 93 b1 04 	sts	0x04B1, r19
    242a:	20 93 b0 04 	sts	0x04B0, r18
				yu_sum_flow = value_flow % 10;
    242e:	9c 01       	movw	r18, r24
    2430:	22 0f       	add	r18, r18
    2432:	33 1f       	adc	r19, r19
    2434:	88 0f       	add	r24, r24
    2436:	99 1f       	adc	r25, r25
    2438:	88 0f       	add	r24, r24
    243a:	99 1f       	adc	r25, r25
    243c:	88 0f       	add	r24, r24
    243e:	99 1f       	adc	r25, r25
    2440:	82 0f       	add	r24, r18
    2442:	93 1f       	adc	r25, r19
    2444:	48 1b       	sub	r20, r24
    2446:	59 0b       	sbc	r21, r25
    2448:	50 93 ad 04 	sts	0x04AD, r21
    244c:	40 93 ac 04 	sts	0x04AC, r20
			
				Time1_Stop();
    2450:	0e 94 a7 10 	call	0x214e	; 0x214e <Time1_Stop>
				Time3_Stop();
    2454:	0e 94 dc 10 	call	0x21b8	; 0x21b8 <Time3_Stop>
				
							
				sum_viuv_time += time_zhishui;
    2458:	20 91 b7 04 	lds	r18, 0x04B7
    245c:	30 91 b8 04 	lds	r19, 0x04B8
    2460:	80 91 b2 04 	lds	r24, 0x04B2
    2464:	90 91 b3 04 	lds	r25, 0x04B3
    2468:	82 0f       	add	r24, r18
    246a:	93 1f       	adc	r25, r19
    246c:	90 93 b3 04 	sts	0x04B3, r25
    2470:	80 93 b2 04 	sts	0x04B2, r24
				time_zhishui = 0;
    2474:	10 92 b8 04 	sts	0x04B8, r1
    2478:	10 92 b7 04 	sts	0x04B7, r1
	
				if (sum_viuv_time > T_chongxi * 2)//设定制水时间后冲洗
    247c:	20 91 a0 01 	lds	r18, 0x01A0
    2480:	30 91 a1 01 	lds	r19, 0x01A1
    2484:	22 0f       	add	r18, r18
    2486:	33 1f       	adc	r19, r19
    2488:	28 17       	cp	r18, r24
    248a:	39 07       	cpc	r19, r25
    248c:	68 f4       	brcc	.+26     	; 0x24a8 <__vector_15+0x1ec>
				{
					sum_viuv_time = 0;//
    248e:	10 92 b3 04 	sts	0x04B3, r1
    2492:	10 92 b2 04 	sts	0x04B2, r1
					deal_cmd |= (0x01 << 14);
    2496:	80 91 b4 04 	lds	r24, 0x04B4
    249a:	90 91 b5 04 	lds	r25, 0x04B5
    249e:	90 64       	ori	r25, 0x40	; 64
    24a0:	90 93 b5 04 	sts	0x04B5, r25
    24a4:	80 93 b4 04 	sts	0x04B4, r24
				}
				zhishui_finish_flag = 0;
    24a8:	10 92 91 04 	sts	0x0491, r1
			}
		}
		
	}
#endif	
}
    24ac:	ff 91       	pop	r31
    24ae:	ef 91       	pop	r30
    24b0:	bf 91       	pop	r27
    24b2:	af 91       	pop	r26
    24b4:	9f 91       	pop	r25
    24b6:	8f 91       	pop	r24
    24b8:	7f 91       	pop	r23
    24ba:	6f 91       	pop	r22
    24bc:	5f 91       	pop	r21
    24be:	4f 91       	pop	r20
    24c0:	3f 91       	pop	r19
    24c2:	2f 91       	pop	r18
    24c4:	0f 90       	pop	r0
    24c6:	0f be       	out	0x3f, r0	; 63
    24c8:	0f 90       	pop	r0
    24ca:	1f 90       	pop	r1
    24cc:	18 95       	reti

000024ce <__vector_14>:


SIGNAL(TIMER1_OVF_vect)
{
    24ce:	1f 92       	push	r1
    24d0:	0f 92       	push	r0
    24d2:	0f b6       	in	r0, 0x3f	; 63
    24d4:	0f 92       	push	r0
    24d6:	11 24       	eor	r1, r1
    24d8:	8f 93       	push	r24
	flow_ovf_flag ++;
    24da:	80 91 bb 04 	lds	r24, 0x04BB
    24de:	8f 5f       	subi	r24, 0xFF	; 255
    24e0:	80 93 bb 04 	sts	0x04BB, r24
}
    24e4:	8f 91       	pop	r24
    24e6:	0f 90       	pop	r0
    24e8:	0f be       	out	0x3f, r0	; 63
    24ea:	0f 90       	pop	r0
    24ec:	1f 90       	pop	r1
    24ee:	18 95       	reti

000024f0 <__vector_12>:
SIGNAL(TIMER1_COMPA_vect)
{
    24f0:	1f 92       	push	r1
    24f2:	0f 92       	push	r0
    24f4:	0f b6       	in	r0, 0x3f	; 63
    24f6:	0f 92       	push	r0
    24f8:	11 24       	eor	r1, r1
	
}
    24fa:	0f 90       	pop	r0
    24fc:	0f be       	out	0x3f, r0	; 63
    24fe:	0f 90       	pop	r0
    2500:	1f 90       	pop	r1
    2502:	18 95       	reti

00002504 <__vector_10>:

SIGNAL(TIMER2_OVF_vect)//定时器T2溢出中断20ms
{
    2504:	1f 92       	push	r1
    2506:	0f 92       	push	r0
    2508:	0f b6       	in	r0, 0x3f	; 63
    250a:	0f 92       	push	r0
    250c:	11 24       	eor	r1, r1
    250e:	2f 93       	push	r18
    2510:	3f 93       	push	r19
    2512:	4f 93       	push	r20
    2514:	5f 93       	push	r21
    2516:	6f 93       	push	r22
    2518:	7f 93       	push	r23
    251a:	8f 93       	push	r24
    251c:	9f 93       	push	r25
    251e:	af 93       	push	r26
    2520:	bf 93       	push	r27
    2522:	ef 93       	push	r30
    2524:	ff 93       	push	r31
	//BEEP(1);
	TCNT2 = 0x28;
    2526:	88 e2       	ldi	r24, 0x28	; 40
    2528:	84 bd       	out	0x24, r24	; 36
	static unsigned int time_20ms = 0;
	time_20ms ++;
    252a:	80 91 8e 04 	lds	r24, 0x048E
    252e:	90 91 8f 04 	lds	r25, 0x048F
    2532:	01 96       	adiw	r24, 0x01	; 1
    2534:	90 93 8f 04 	sts	0x048F, r25
    2538:	80 93 8e 04 	sts	0x048E, r24
	if(time_20ms > 50 * time_chongxi)//设置冲洗的时间
    253c:	20 91 a4 01 	lds	r18, 0x01A4
    2540:	42 e3       	ldi	r20, 0x32	; 50
    2542:	24 9f       	mul	r18, r20
    2544:	90 01       	movw	r18, r0
    2546:	11 24       	eor	r1, r1
    2548:	28 17       	cp	r18, r24
    254a:	39 07       	cpc	r19, r25
    254c:	88 f4       	brcc	.+34     	; 0x2570 <__vector_10+0x6c>
	{
			time_20ms = 0;			
    254e:	10 92 8f 04 	sts	0x048F, r1
    2552:	10 92 8e 04 	sts	0x048E, r1
			close_chongxi();
    2556:	0e 94 e4 0e 	call	0x1dc8	; 0x1dc8 <close_chongxi>
			Time2_Stop();
    255a:	0e 94 c1 10 	call	0x2182	; 0x2182 <Time2_Stop>
			count_chongxi ++;
    255e:	80 91 b9 04 	lds	r24, 0x04B9
    2562:	90 91 ba 04 	lds	r25, 0x04BA
    2566:	01 96       	adiw	r24, 0x01	; 1
    2568:	90 93 ba 04 	sts	0x04BA, r25
    256c:	80 93 b9 04 	sts	0x04B9, r24
		//	Write_COUNT_CHONGXI_EEPROM(count_chongxi);
			//LEDOFF;
			//deal_cmd &= ~(0x01 << 14);
	}
		//BEEP(1);
}
    2570:	ff 91       	pop	r31
    2572:	ef 91       	pop	r30
    2574:	bf 91       	pop	r27
    2576:	af 91       	pop	r26
    2578:	9f 91       	pop	r25
    257a:	8f 91       	pop	r24
    257c:	7f 91       	pop	r23
    257e:	6f 91       	pop	r22
    2580:	5f 91       	pop	r21
    2582:	4f 91       	pop	r20
    2584:	3f 91       	pop	r19
    2586:	2f 91       	pop	r18
    2588:	0f 90       	pop	r0
    258a:	0f be       	out	0x3f, r0	; 63
    258c:	0f 90       	pop	r0
    258e:	1f 90       	pop	r1
    2590:	18 95       	reti

00002592 <__vector_9>:
SIGNAL(TIMER2_COMP_vect)//定时器T2比较中断
{
    2592:	1f 92       	push	r1
    2594:	0f 92       	push	r0
    2596:	0f b6       	in	r0, 0x3f	; 63
    2598:	0f 92       	push	r0
    259a:	11 24       	eor	r1, r1
	
	//USART0_Transmit(a);
	//TCNT0 = 0x00;
	//BEEP(20);
}
    259c:	0f 90       	pop	r0
    259e:	0f be       	out	0x3f, r0	; 63
    25a0:	0f 90       	pop	r0
    25a2:	1f 90       	pop	r1
    25a4:	18 95       	reti

000025a6 <__vector_29>:

//制水的时候开启定时器3计算时间，检测tds1，tds2,制水的时间
SIGNAL(TIMER3_OVF_vect)//计算制水的时间100ms
{
    25a6:	1f 92       	push	r1
    25a8:	0f 92       	push	r0
    25aa:	0f b6       	in	r0, 0x3f	; 63
    25ac:	0f 92       	push	r0
    25ae:	11 24       	eor	r1, r1
    25b0:	2f 93       	push	r18
    25b2:	3f 93       	push	r19
    25b4:	4f 93       	push	r20
    25b6:	5f 93       	push	r21
    25b8:	6f 93       	push	r22
    25ba:	7f 93       	push	r23
    25bc:	8f 93       	push	r24
    25be:	9f 93       	push	r25
    25c0:	af 93       	push	r26
    25c2:	bf 93       	push	r27
    25c4:	ef 93       	push	r30
    25c6:	ff 93       	push	r31
	TCNT3H = 0xFB;
    25c8:	8b ef       	ldi	r24, 0xFB	; 251
    25ca:	80 93 89 00 	sts	0x0089, r24
	TCNT3L = 0xC8;
    25ce:	88 ec       	ldi	r24, 0xC8	; 200
    25d0:	80 93 88 00 	sts	0x0088, r24
	static unsigned char t_100ms = 0;
		t_100ms ++;
    25d4:	80 91 8d 04 	lds	r24, 0x048D
    25d8:	8f 5f       	subi	r24, 0xFF	; 255
		if(t_100ms > 5)//制水时间――――>500ms秒记一次
    25da:	86 30       	cpi	r24, 0x06	; 6
    25dc:	18 f4       	brcc	.+6      	; 0x25e4 <__vector_29+0x3e>
SIGNAL(TIMER3_OVF_vect)//计算制水的时间100ms
{
	TCNT3H = 0xFB;
	TCNT3L = 0xC8;
	static unsigned char t_100ms = 0;
		t_100ms ++;
    25de:	80 93 8d 04 	sts	0x048D, r24
    25e2:	0b c0       	rjmp	.+22     	; 0x25fa <__vector_29+0x54>
		if(t_100ms > 5)//制水时间――――>500ms秒记一次
		{			
			t_100ms = 0;
    25e4:	10 92 8d 04 	sts	0x048D, r1
			time_zhishui ++;
    25e8:	80 91 b7 04 	lds	r24, 0x04B7
    25ec:	90 91 b8 04 	lds	r25, 0x04B8
    25f0:	01 96       	adiw	r24, 0x01	; 1
    25f2:	90 93 b8 04 	sts	0x04B8, r25
    25f6:	80 93 b7 04 	sts	0x04B7, r24
			
		}
		//100ms读取一次
		memset(flow, 0, 8);
    25fa:	88 e0       	ldi	r24, 0x08	; 8
    25fc:	ee e9       	ldi	r30, 0x9E	; 158
    25fe:	f4 e0       	ldi	r31, 0x04	; 4
    2600:	df 01       	movw	r26, r30
    2602:	1d 92       	st	X+, r1
    2604:	8a 95       	dec	r24
    2606:	e9 f7       	brne	.-6      	; 0x2602 <__vector_29+0x5c>
		memset(tds1, 0, 4);
    2608:	10 92 9a 04 	sts	0x049A, r1
    260c:	10 92 9b 04 	sts	0x049B, r1
    2610:	10 92 9c 04 	sts	0x049C, r1
    2614:	10 92 9d 04 	sts	0x049D, r1
		memset(tds2, 0, 4);
    2618:	10 92 96 04 	sts	0x0496, r1
    261c:	10 92 97 04 	sts	0x0497, r1
    2620:	10 92 98 04 	sts	0x0498, r1
    2624:	10 92 99 04 	sts	0x0499, r1
		SET_FLOW(flow);//计数一下1ml,1000下为1L
    2628:	cf 01       	movw	r24, r30
    262a:	0e 94 3f 0e 	call	0x1c7e	; 0x1c7e <SET_FLOW>
		SET_TDS1(tds1);
    262e:	8a e9       	ldi	r24, 0x9A	; 154
    2630:	94 e0       	ldi	r25, 0x04	; 4
    2632:	0e 94 56 0e 	call	0x1cac	; 0x1cac <SET_TDS1>
		SET_TDS2(tds2);
    2636:	86 e9       	ldi	r24, 0x96	; 150
    2638:	94 e0       	ldi	r25, 0x04	; 4
    263a:	0e 94 8d 0e 	call	0x1d1a	; 0x1d1a <SET_TDS2>
			//LEDON;
		
		
}
    263e:	ff 91       	pop	r31
    2640:	ef 91       	pop	r30
    2642:	bf 91       	pop	r27
    2644:	af 91       	pop	r26
    2646:	9f 91       	pop	r25
    2648:	8f 91       	pop	r24
    264a:	7f 91       	pop	r23
    264c:	6f 91       	pop	r22
    264e:	5f 91       	pop	r21
    2650:	4f 91       	pop	r20
    2652:	3f 91       	pop	r19
    2654:	2f 91       	pop	r18
    2656:	0f 90       	pop	r0
    2658:	0f be       	out	0x3f, r0	; 63
    265a:	0f 90       	pop	r0
    265c:	1f 90       	pop	r1
    265e:	18 95       	reti

00002660 <__vector_26>:
SIGNAL(TIMER3_COMPA_vect)
{
    2660:	1f 92       	push	r1
    2662:	0f 92       	push	r0
    2664:	0f b6       	in	r0, 0x3f	; 63
    2666:	0f 92       	push	r0
    2668:	11 24       	eor	r1, r1
	
    266a:	0f 90       	pop	r0
    266c:	0f be       	out	0x3f, r0	; 63
    266e:	0f 90       	pop	r0
    2670:	1f 90       	pop	r1
    2672:	18 95       	reti

00002674 <System_Init>:



void System_Init(void)
{
	cli();
    2674:	f8 94       	cli
	Port_Init();
    2676:	0e 94 c7 0e 	call	0x1d8e	; 0x1d8e <Port_Init>
	LCD_Init();
    267a:	0e 94 30 0d 	call	0x1a60	; 0x1a60 <LCD_Init>
	Time1_Init();
    267e:	0e 94 9d 10 	call	0x213a	; 0x213a <Time1_Init>
	Time2_Init();
    2682:	0e 94 b4 10 	call	0x2168	; 0x2168 <Time2_Init>
	Time3_Init();
    2686:	0e 94 c8 10 	call	0x2190	; 0x2190 <Time3_Init>
	//	sei();			
	//	_delay_ms(5000);		
	//	1Time0_Init();
	//	cli();
	ADC_Init();
    268a:	0e 94 7f 00 	call	0xfe	; 0xfe <ADC_Init>
	USART1_Init();
    268e:	0e 94 3b 15 	call	0x2a76	; 0x2a76 <USART1_Init>
		USART0_Init();//usart串口与time3冲突？？
    2692:	0e 94 0f 15 	call	0x2a1e	; 0x2a1e <USART0_Init>
			
	LED_Init();
    2696:	0e 94 c4 0e 	call	0x1d88	; 0x1d88 <LED_Init>
	BEEP_Init();
    269a:	0e 94 cd 00 	call	0x19a	; 0x19a <BEEP_Init>

	Time0_Init();//定时器1开启,喂看门狗	
    269e:	0e 94 7c 10 	call	0x20f8	; 0x20f8 <Time0_Init>
	Time2_Start();//定时器2，开机冲洗6秒
    26a2:	0e 94 ba 10 	call	0x2174	; 0x2174 <Time2_Start>
	
	wdt_enable(WDTO_500MS); //开启看门狗	
    26a6:	2d e0       	ldi	r18, 0x0D	; 13
    26a8:	88 e1       	ldi	r24, 0x18	; 24
    26aa:	90 e0       	ldi	r25, 0x00	; 0
    26ac:	0f b6       	in	r0, 0x3f	; 63
    26ae:	f8 94       	cli
    26b0:	a8 95       	wdr
    26b2:	81 bd       	out	0x21, r24	; 33
    26b4:	0f be       	out	0x3f, r0	; 63
    26b6:	21 bd       	out	0x21, r18	; 33
	sei();
    26b8:	78 94       	sei
    26ba:	08 95       	ret

000026bc <Data_Init>:

	//	WRITE_ALLRAM_1726(1);//全部显示

}
void  Data_Init(unsigned char *status, unsigned int *viuv_time, unsigned int *cmd)
{
    26bc:	9f 92       	push	r9
    26be:	af 92       	push	r10
    26c0:	bf 92       	push	r11
    26c2:	cf 92       	push	r12
    26c4:	df 92       	push	r13
    26c6:	ef 92       	push	r14
    26c8:	ff 92       	push	r15
    26ca:	0f 93       	push	r16
    26cc:	1f 93       	push	r17
    26ce:	cf 93       	push	r28
    26d0:	df 93       	push	r29
    26d2:	cd b7       	in	r28, 0x3d	; 61
    26d4:	de b7       	in	r29, 0x3e	; 62
    26d6:	28 97       	sbiw	r28, 0x08	; 8
    26d8:	0f b6       	in	r0, 0x3f	; 63
    26da:	f8 94       	cli
    26dc:	de bf       	out	0x3e, r29	; 62
    26de:	0f be       	out	0x3f, r0	; 63
    26e0:	cd bf       	out	0x3d, r28	; 61
    26e2:	7c 01       	movw	r14, r24
    26e4:	6b 01       	movw	r12, r22
    26e6:	5a 01       	movw	r10, r20
    26e8:	2f ef       	ldi	r18, 0xFF	; 255
    26ea:	8f e1       	ldi	r24, 0x1F	; 31
    26ec:	9a e0       	ldi	r25, 0x0A	; 10
    26ee:	21 50       	subi	r18, 0x01	; 1
    26f0:	80 40       	sbci	r24, 0x00	; 0
    26f2:	90 40       	sbci	r25, 0x00	; 0
    26f4:	e1 f7       	brne	.-8      	; 0x26ee <Data_Init+0x32>
    26f6:	00 c0       	rjmp	.+0      	; 0x26f8 <Data_Init+0x3c>
    26f8:	00 00       	nop
	_delay_ms(300);

	//	LCD_Ico |= 0x0f;		
		//	WRITE_ALLRAM_1726(0);//
	memset(status, 0, 2);//初始化状态	
    26fa:	d7 01       	movw	r26, r14
    26fc:	1d 92       	st	X+, r1
    26fe:	1c 92       	st	X, r1
	unsigned char read_eeprom_buf[8] = { 0 };
    2700:	fe 01       	movw	r30, r28
    2702:	31 96       	adiw	r30, 0x01	; 1
    2704:	88 e0       	ldi	r24, 0x08	; 8
    2706:	df 01       	movw	r26, r30
    2708:	1d 92       	st	X+, r1
    270a:	8a 95       	dec	r24
    270c:	e9 f7       	brne	.-6      	; 0x2708 <Data_Init+0x4c>

	//LEDON;
	if (Check_Init())
    270e:	0e 94 1c 01 	call	0x238	; 0x238 <Check_Init>
    2712:	89 2b       	or	r24, r25
    2714:	09 f4       	brne	.+2      	; 0x2718 <Data_Init+0x5c>
    2716:	52 c0       	rjmp	.+164    	; 0x27bc <Data_Init+0x100>
	{
		//flow_set(read_eeprom_buf);

		//时间
		SET_TIME(Read_TIME_EEPROM());
    2718:	0e 94 5f 01 	call	0x2be	; 0x2be <Read_TIME_EEPROM>
    271c:	0e 94 ed 0d 	call	0x1bda	; 0x1bda <SET_TIME>
		//流量
		sum_flow = Read_FLOW_EEPROM();
    2720:	0e 94 92 01 	call	0x324	; 0x324 <Read_FLOW_EEPROM>
    2724:	90 93 b1 04 	sts	0x04B1, r25
    2728:	80 93 b0 04 	sts	0x04B0, r24
		SET_FLOW_L(sum_flow);
    272c:	0e 94 16 0e 	call	0x1c2c	; 0x1c2c <SET_FLOW_L>


		//tds2 原水
		memset(read_eeprom_buf, 0, 8);
    2730:	68 94       	set
    2732:	99 24       	eor	r9, r9
    2734:	93 f8       	bld	r9, 3
    2736:	8e 01       	movw	r16, r28
    2738:	0f 5f       	subi	r16, 0xFF	; 255
    273a:	1f 4f       	sbci	r17, 0xFF	; 255
    273c:	f8 01       	movw	r30, r16
    273e:	29 2d       	mov	r18, r9
    2740:	11 92       	st	Z+, r1
    2742:	2a 95       	dec	r18
    2744:	e9 f7       	brne	.-6      	; 0x2740 <Data_Init+0x84>
		Read_RAW_EEPROM(read_eeprom_buf);
    2746:	c8 01       	movw	r24, r16
    2748:	0e 94 b8 01 	call	0x370	; 0x370 <Read_RAW_EEPROM>
		raw_water_set(read_eeprom_buf);
    274c:	c8 01       	movw	r24, r16
    274e:	0e 94 ac 0d 	call	0x1b58	; 0x1b58 <raw_water_set>
		//tds1 净水
		memset(read_eeprom_buf, 0, 8);
    2752:	d8 01       	movw	r26, r16
    2754:	e9 2d       	mov	r30, r9
    2756:	1d 92       	st	X+, r1
    2758:	ea 95       	dec	r30
    275a:	e9 f7       	brne	.-6      	; 0x2756 <Data_Init+0x9a>
		pure_water_set(Read_PURE_EEPROM(read_eeprom_buf));
    275c:	c8 01       	movw	r24, r16
    275e:	0e 94 cc 01 	call	0x398	; 0x398 <Read_PURE_EEPROM>
    2762:	0e 94 5b 0d 	call	0x1ab6	; 0x1ab6 <pure_water_set>
		memset(read_eeprom_buf, 0, 8);
    2766:	d8 01       	movw	r26, r16
    2768:	e9 2d       	mov	r30, r9
    276a:	1d 92       	st	X+, r1
    276c:	ea 95       	dec	r30
    276e:	e9 f7       	brne	.-6      	; 0x276a <Data_Init+0xae>

		//机状态
		Read_STATUS_EEPROM(read_eeprom_buf);
    2770:	c8 01       	movw	r24, r16
    2772:	0e 94 3e 01 	call	0x27c	; 0x27c <Read_STATUS_EEPROM>

		Str_Add_Str(status, 0, read_eeprom_buf, 2);
    2776:	22 e0       	ldi	r18, 0x02	; 2
    2778:	a8 01       	movw	r20, r16
    277a:	60 e0       	ldi	r22, 0x00	; 0
    277c:	c7 01       	movw	r24, r14
    277e:	0e 94 23 0f 	call	0x1e46	; 0x1e46 <Str_Add_Str>
		memset(read_eeprom_buf, 0, 8);
    2782:	d8 01       	movw	r26, r16
    2784:	1d 92       	st	X+, r1
    2786:	9a 94       	dec	r9
    2788:	e9 f7       	brne	.-6      	; 0x2784 <Data_Init+0xc8>
		//处理命令
		Read_CMD_EEPROM(cmd);
    278a:	c5 01       	movw	r24, r10
    278c:	0e 94 f2 01 	call	0x3e4	; 0x3e4 <Read_CMD_EEPROM>
		//剩余的流量
		yu_sum_flow = Read_YU_SUM_FLOW_EEPROM();
    2790:	0e 94 3a 02 	call	0x474	; 0x474 <Read_YU_SUM_FLOW_EEPROM>
    2794:	90 93 ad 04 	sts	0x04AD, r25
    2798:	80 93 ac 04 	sts	0x04AC, r24

		Read_Filte_CntV_EEPROM(Filte_CntV);
    279c:	86 ea       	ldi	r24, 0xA6	; 166
    279e:	94 e0       	ldi	r25, 0x04	; 4
    27a0:	0e 94 ad 02 	call	0x55a	; 0x55a <Read_Filte_CntV_EEPROM>

		*viuv_time = Read__VIUV_TIME_EEPROM();
    27a4:	0e 94 7e 02 	call	0x4fc	; 0x4fc <Read__VIUV_TIME_EEPROM>
    27a8:	f6 01       	movw	r30, r12
    27aa:	91 83       	std	Z+1, r25	; 0x01
    27ac:	80 83       	st	Z, r24

		count_chongxi = Read_COUNT_CHONGXI_EEPROM();
    27ae:	0e 94 0c 02 	call	0x418	; 0x418 <Read_COUNT_CHONGXI_EEPROM>
    27b2:	90 93 ba 04 	sts	0x04BA, r25
    27b6:	80 93 b9 04 	sts	0x04B9, r24
    27ba:	0b c0       	rjmp	.+22     	; 0x27d2 <Data_Init+0x116>
	else
	{
		//flow_set("00000");	
		//Write_Iint_Filte_CntV_EEPROM(Iint_Filte_CntV);
	//	Write_Init_EEPROM();
		BEEP(10);
    27bc:	8a e0       	ldi	r24, 0x0A	; 10
    27be:	0e 94 d0 00 	call	0x1a0	; 0x1a0 <BEEP>
		viuv_time = 0;
		yu_sum_flow = 0;
    27c2:	10 92 ad 04 	sts	0x04AD, r1
    27c6:	10 92 ac 04 	sts	0x04AC, r1
		sum_flow = 0;
    27ca:	10 92 b1 04 	sts	0x04B1, r1
    27ce:	10 92 b0 04 	sts	0x04B0, r1

				//return 0;	
	}
	//LEDOFF;

}
    27d2:	28 96       	adiw	r28, 0x08	; 8
    27d4:	0f b6       	in	r0, 0x3f	; 63
    27d6:	f8 94       	cli
    27d8:	de bf       	out	0x3e, r29	; 62
    27da:	0f be       	out	0x3f, r0	; 63
    27dc:	cd bf       	out	0x3d, r28	; 61
    27de:	df 91       	pop	r29
    27e0:	cf 91       	pop	r28
    27e2:	1f 91       	pop	r17
    27e4:	0f 91       	pop	r16
    27e6:	ff 90       	pop	r15
    27e8:	ef 90       	pop	r14
    27ea:	df 90       	pop	r13
    27ec:	cf 90       	pop	r12
    27ee:	bf 90       	pop	r11
    27f0:	af 90       	pop	r10
    27f2:	9f 90       	pop	r9
    27f4:	08 95       	ret

000027f6 <main>:


int main(void)
{
    27f6:	cf 93       	push	r28
    27f8:	df 93       	push	r29
    27fa:	cd b7       	in	r28, 0x3d	; 61
    27fc:	de b7       	in	r29, 0x3e	; 62
    27fe:	2d 97       	sbiw	r28, 0x0d	; 13
    2800:	0f b6       	in	r0, 0x3f	; 63
    2802:	f8 94       	cli
    2804:	de bf       	out	0x3e, r29	; 62
    2806:	0f be       	out	0x3f, r0	; 63
    2808:	cd bf       	out	0x3d, r28	; 61

	DDRC |= 0x01 << PC6;
    280a:	a6 9a       	sbi	0x14, 6	; 20
	PORTC |= 0x01 << PC6;
    280c:	ae 9a       	sbi	0x15, 6	; 21
	System_Init();
    280e:	0e 94 3a 13 	call	0x2674	; 0x2674 <System_Init>
	//unsigned char Parameter[] = { 0x00,0x00,0x00,0x00,0x71,0x00,0x74,0x00,0x00,0x00 };

	//unsigned int sum_time = 0;//电磁阀工作的总时间

	unsigned char eeprom_write_flag = 0;
	unsigned char Parameter[] = { 0x00,0x00,0x00,0x00,0x00,0x00,0x00,0x00,0x00,0x00,0x00,0x00,0x00 };
    2812:	fe 01       	movw	r30, r28
    2814:	31 96       	adiw	r30, 0x01	; 1
    2816:	8d e0       	ldi	r24, 0x0D	; 13
    2818:	df 01       	movw	r26, r30
    281a:	1d 92       	st	X+, r1
    281c:	8a 95       	dec	r24
    281e:	e9 f7       	brne	.-6      	; 0x281a <main+0x24>
	//unsigned char Ack[22] = { 0 }, Ack_Len = 0;
	//deal_cmd = 0xFFFF;
	Data_Init(status, &sum_viuv_time, &deal_cmd);
    2820:	44 eb       	ldi	r20, 0xB4	; 180
    2822:	54 e0       	ldi	r21, 0x04	; 4
    2824:	62 eb       	ldi	r22, 0xB2	; 178
    2826:	74 e0       	ldi	r23, 0x04	; 4
    2828:	82 e9       	ldi	r24, 0x92	; 146
    282a:	94 e0       	ldi	r25, 0x04	; 4
    282c:	0e 94 5e 13 	call	0x26bc	; 0x26bc <Data_Init>

	//LEDON;

//	_delay_ms(6000);
	//						关机			停机			冲洗		租赁时间
	deal_cmd = 0xFFF | (0x00 << 12) | (0x00 << 13) | (0x00 << 14) | (0x00 << 15);
    2830:	8f ef       	ldi	r24, 0xFF	; 255
    2832:	9f e0       	ldi	r25, 0x0F	; 15
    2834:	90 93 b5 04 	sts	0x04B5, r25
    2838:	80 93 b4 04 	sts	0x04B4, r24
	//_delay_ms(5000);
	//LEDON;
//	USART0_Transmit_String("Init end!");
	//BEEP(10);
	//while(1);
	LCD_Ico |= 0x0f;
    283c:	80 91 8b 04 	lds	r24, 0x048B
    2840:	8f 60       	ori	r24, 0x0F	; 15
    2842:	80 93 8b 04 	sts	0x048B, r24
	//unsigned char Cmd[] = { 0x00,0x02 };
	//unsigned char Parameter[] = { 0x00,0x00,0x00,0x00,0x71,0x00,0x74,0x00,0x00,0x00 };

	//unsigned int sum_time = 0;//电磁阀工作的总时间

	unsigned char eeprom_write_flag = 0;
    2846:	31 2c       	mov	r3, r1
		
		Write_STATUS_EEPROM(status);
		//	if(0)
		if (send_flag)
		{
			LEDRUN;			
    2848:	99 24       	eor	r9, r9
    284a:	93 94       	inc	r9
			//sum_flow = 23;
			Write_FLOW_EEPROM(sum_flow);//总流量（L）

			Write_PURE_EEPROM(tds1);
			Write_RAW_EEPROM(tds2);
			Write_VIUV_TIME_EEPROM(sum_viuv_time);//一次制水还没有冲洗的时间(分钟)
    284c:	0f 2e       	mov	r0, r31
    284e:	f2 eb       	ldi	r31, 0xB2	; 178
    2850:	6f 2e       	mov	r6, r31
    2852:	f4 e0       	ldi	r31, 0x04	; 4
    2854:	7f 2e       	mov	r7, r31
    2856:	f0 2d       	mov	r31, r0

			memset(Filte_CntV, 0, 2 * Filte_num);
    2858:	0f 2e       	mov	r0, r31
    285a:	f6 ea       	ldi	r31, 0xA6	; 166
    285c:	ef 2e       	mov	r14, r31
    285e:	f4 e0       	ldi	r31, 0x04	; 4
    2860:	ff 2e       	mov	r15, r31
    2862:	f0 2d       	mov	r31, r0
    2864:	0f 2e       	mov	r0, r31
    2866:	f6 e0       	ldi	r31, 0x06	; 6
    2868:	8f 2e       	mov	r8, r31
    286a:	f0 2d       	mov	r31, r0
			for (unsigned char i = 0; i < Filte_num; i++)
			{
				Filte_CntV[2 * i] += sum_flow << 8;
				Filte_CntV[2 * i + 1] += sum_flow;
    286c:	0f 2e       	mov	r0, r31
    286e:	f0 eb       	ldi	r31, 0xB0	; 176
    2870:	4f 2e       	mov	r4, r31
    2872:	f4 e0       	ldi	r31, 0x04	; 4
    2874:	5f 2e       	mov	r5, r31
    2876:	f0 2d       	mov	r31, r0
    2878:	0f 2e       	mov	r0, r31
    287a:	f7 ea       	ldi	r31, 0xA7	; 167
    287c:	af 2e       	mov	r10, r31
    287e:	f4 e0       	ldi	r31, 0x04	; 4
    2880:	bf 2e       	mov	r11, r31
    2882:	f0 2d       	mov	r31, r0
    2884:	0f 2e       	mov	r0, r31
    2886:	fb e9       	ldi	r31, 0x9B	; 155
    2888:	cf 2e       	mov	r12, r31
    288a:	f1 e0       	ldi	r31, 0x01	; 1
    288c:	df 2e       	mov	r13, r31
    288e:	f0 2d       	mov	r31, r0
    2890:	0d ea       	ldi	r16, 0xAD	; 173
    2892:	14 e0       	ldi	r17, 0x04	; 4
    2894:	01 c0       	rjmp	.+2      	; 0x2898 <main+0xa2>
		Write_CMD_EEPROM(deal_cmd);
		Write_STATUS_EEPROM(status);
#if 1
		if (Get_time3_Status())//在制水过程中断电无法保存数据
		{
			eeprom_write_flag = 1;
    2896:	39 2c       	mov	r3, r9
//		//GPRS状态获
		//_delay_ms(1000);
		//deal_cmd = Read_CMD_EEPROM();
	
		
			GET_GPRS_Signal();
    2898:	0e 94 ba 02 	call	0x574	; 0x574 <GET_GPRS_Signal>
		
		Write_STATUS_EEPROM(status);
    289c:	82 e9       	ldi	r24, 0x92	; 146
    289e:	94 e0       	ldi	r25, 0x04	; 4
    28a0:	0e 94 37 01 	call	0x26e	; 0x26e <Write_STATUS_EEPROM>
		//	if(0)
		if (send_flag)
    28a4:	80 91 b6 04 	lds	r24, 0x04B6
    28a8:	88 23       	and	r24, r24
    28aa:	61 f1       	breq	.+88     	; 0x2904 <main+0x10e>
		{
			LEDRUN;			
    28ac:	85 b3       	in	r24, 0x15	; 21
    28ae:	89 25       	eor	r24, r9
    28b0:	85 bb       	out	0x15, r24	; 21
    28b2:	bf ef       	ldi	r27, 0xFF	; 255
    28b4:	ef e7       	ldi	r30, 0x7F	; 127
    28b6:	f3 e4       	ldi	r31, 0x43	; 67
    28b8:	b1 50       	subi	r27, 0x01	; 1
    28ba:	e0 40       	sbci	r30, 0x00	; 0
    28bc:	f0 40       	sbci	r31, 0x00	; 0
    28be:	e1 f7       	brne	.-8      	; 0x28b8 <main+0xc2>
    28c0:	00 c0       	rjmp	.+0      	; 0x28c2 <main+0xcc>
    28c2:	00 00       	nop
			_delay_ms(2000);
							//make_parameter(Parameter, status, tds1, tds2,sum_flow,Filte_CntV);

			unsigned int error = 0;
#if 1
			error = GET_CMD(Parameter);
    28c4:	ce 01       	movw	r24, r28
    28c6:	01 96       	adiw	r24, 0x01	; 1
    28c8:	0e 94 07 10 	call	0x200e	; 0x200e <GET_CMD>
#endif
			//error = 0xFFFF;
			if ((error && (error != 0xFFFF)))
    28cc:	9c 01       	movw	r18, r24
    28ce:	21 50       	subi	r18, 0x01	; 1
    28d0:	31 09       	sbc	r19, r1
    28d2:	2e 3f       	cpi	r18, 0xFE	; 254
    28d4:	3f 4f       	sbci	r19, 0xFF	; 255
    28d6:	38 f4       	brcc	.+14     	; 0x28e6 <main+0xf0>
			{
				deal_cmd = error;
    28d8:	90 93 b5 04 	sts	0x04B5, r25
    28dc:	80 93 b4 04 	sts	0x04B4, r24
				//						关机			停机			冲洗		租赁时间
					//deal_cmd = 0x10 | (0x00 << 12) | (0x00 << 13) | (0x00 << 14) | (0x00 << 15);
					//deal_cmd = 0x10;
				send_flag = 0;
    28e0:	10 92 b6 04 	sts	0x04B6, r1
						LEDOFF;
    28e4:	a8 9a       	sbi	0x15, 0	; 21
			}
			//deal_cmd = 0x0010;
			if ((LCD_Ico & 0x01 << 4))
    28e6:	80 91 8b 04 	lds	r24, 0x048B
    28ea:	84 ff       	sbrs	r24, 4
    28ec:	0b c0       	rjmp	.+22     	; 0x2904 <main+0x10e>
    28ee:	8f ef       	ldi	r24, 0xFF	; 255
    28f0:	9f eb       	ldi	r25, 0xBF	; 191
    28f2:	a6 e0       	ldi	r26, 0x06	; 6
    28f4:	81 50       	subi	r24, 0x01	; 1
    28f6:	90 40       	sbci	r25, 0x00	; 0
    28f8:	a0 40       	sbci	r26, 0x00	; 0
    28fa:	e1 f7       	brne	.-8      	; 0x28f4 <main+0xfe>
    28fc:	00 c0       	rjmp	.+0      	; 0x28fe <main+0x108>
    28fe:	00 00       	nop
			{
				//LEDOFF;
				_delay_ms(200);
				error = ERROR_HYDROPENIA();
    2900:	0e 94 32 10 	call	0x2064	; 0x2064 <ERROR_HYDROPENIA>
		}
//		deal_cmd = 0x10;
		{
			//deal_cmd = 0x0010;

			if (deal_cmd & 0x01 << 12)//关机
    2904:	80 91 b4 04 	lds	r24, 0x04B4
    2908:	90 91 b5 04 	lds	r25, 0x04B5
    290c:	94 ff       	sbrs	r25, 4
    290e:	04 c0       	rjmp	.+8      	; 0x2918 <main+0x122>
			{
				WRITE_ALLRAM_1726(0);
    2910:	80 e0       	ldi	r24, 0x00	; 0
    2912:	0e 94 8f 0a 	call	0x151e	; 0x151e <WRITE_ALLRAM_1726>
				//HT1721C_BL_0;
				//status[0] &= ~(0x1 << 0);
				continue;
    2916:	c0 cf       	rjmp	.-128    	; 0x2898 <main+0xa2>
			}
			else
			{
				//status[0] |= (0x1 << 0);
			}
			if (deal_cmd & (0x01 << 13))//停机
    2918:	95 fd       	sbrc	r25, 5
    291a:	be cf       	rjmp	.-132    	; 0x2898 <main+0xa2>
			}
			else
			{

			}
			if (deal_cmd & (0x01 << 15))//租赁时间
    291c:	99 23       	and	r25, r25
    291e:	0c f4       	brge	.+2      	; 0x2922 <main+0x12c>
    2920:	bb cf       	rjmp	.-138    	; 0x2898 <main+0xa2>
			{
				continue;
			}
			else
			{
				LCD_Ico |= 0x01;
    2922:	20 91 8b 04 	lds	r18, 0x048B
    2926:	21 60       	ori	r18, 0x01	; 1
    2928:	20 93 8b 04 	sts	0x048B, r18
				//	 deal_cmd = 0x0DFE;
				SET_TIME((deal_cmd & 0x0FFF));
    292c:	9f 70       	andi	r25, 0x0F	; 15
    292e:	0e 94 ed 0d 	call	0x1bda	; 0x1bda <SET_TIME>
				Write_TIME_EEPROM((deal_cmd & 0x0FFF));
    2932:	80 91 b4 04 	lds	r24, 0x04B4
    2936:	90 91 b5 04 	lds	r25, 0x04B5
    293a:	9f 70       	andi	r25, 0x0F	; 15
    293c:	0e 94 4b 01 	call	0x296	; 0x296 <Write_TIME_EEPROM>

			}
			if (LCD_Ico & (0x01 << 5))
    2940:	80 91 8b 04 	lds	r24, 0x048B
    2944:	85 ff       	sbrs	r24, 5
    2946:	0b c0       	rjmp	.+22     	; 0x295e <main+0x168>
    2948:	bf ef       	ldi	r27, 0xFF	; 255
    294a:	ef e1       	ldi	r30, 0x1F	; 31
    294c:	fa e0       	ldi	r31, 0x0A	; 10
    294e:	b1 50       	subi	r27, 0x01	; 1
    2950:	e0 40       	sbci	r30, 0x00	; 0
    2952:	f0 40       	sbci	r31, 0x00	; 0
    2954:	e1 f7       	brne	.-8      	; 0x294e <main+0x158>
    2956:	00 c0       	rjmp	.+0      	; 0x2958 <main+0x162>
    2958:	00 00       	nop
			{
				_delay_ms(300);
				ERROR_LEAKAGE();
    295a:	0e 94 57 10 	call	0x20ae	; 0x20ae <ERROR_LEAKAGE>
			}
		}
		Write_CMD_EEPROM(deal_cmd);
    295e:	80 91 b4 04 	lds	r24, 0x04B4
    2962:	90 91 b5 04 	lds	r25, 0x04B5
    2966:	0e 94 d9 01 	call	0x3b2	; 0x3b2 <Write_CMD_EEPROM>
		Write_STATUS_EEPROM(status);
    296a:	82 e9       	ldi	r24, 0x92	; 146
    296c:	94 e0       	ldi	r25, 0x04	; 4
    296e:	0e 94 37 01 	call	0x26e	; 0x26e <Write_STATUS_EEPROM>
#if 1
		if (Get_time3_Status())//在制水过程中断电无法保存数据
    2972:	0e 94 e7 10 	call	0x21ce	; 0x21ce <Get_time3_Status>
    2976:	81 11       	cpse	r24, r1
    2978:	8e cf       	rjmp	.-228    	; 0x2896 <main+0xa0>
		{
			eeprom_write_flag = 1;
		}
		else if (eeprom_write_flag)
    297a:	33 20       	and	r3, r3
    297c:	09 f4       	brne	.+2      	; 0x2980 <main+0x18a>
    297e:	8c cf       	rjmp	.-232    	; 0x2898 <main+0xa2>
		{
			Write_YU_SUM_FLOW_EEPROM(yu_sum_flow);
    2980:	80 91 ac 04 	lds	r24, 0x04AC
    2984:	90 91 ad 04 	lds	r25, 0x04AD
    2988:	0e 94 26 02 	call	0x44c	; 0x44c <Write_YU_SUM_FLOW_EEPROM>
			//sum_flow = 23;
			Write_FLOW_EEPROM(sum_flow);//总流量（L）
    298c:	80 91 b0 04 	lds	r24, 0x04B0
    2990:	90 91 b1 04 	lds	r25, 0x04B1
    2994:	0e 94 7e 01 	call	0x2fc	; 0x2fc <Write_FLOW_EEPROM>

			Write_PURE_EEPROM(tds1);
    2998:	8a e9       	ldi	r24, 0x9A	; 154
    299a:	94 e0       	ldi	r25, 0x04	; 4
    299c:	0e 94 c5 01 	call	0x38a	; 0x38a <Write_PURE_EEPROM>
			Write_RAW_EEPROM(tds2);
    29a0:	86 e9       	ldi	r24, 0x96	; 150
    29a2:	94 e0       	ldi	r25, 0x04	; 4
    29a4:	0e 94 b1 01 	call	0x362	; 0x362 <Write_RAW_EEPROM>
			Write_VIUV_TIME_EEPROM(sum_viuv_time);//一次制水还没有冲洗的时间(分钟)
    29a8:	d3 01       	movw	r26, r6
    29aa:	8c 91       	ld	r24, X
    29ac:	0e 94 54 02 	call	0x4a8	; 0x4a8 <Write_VIUV_TIME_EEPROM>

			memset(Filte_CntV, 0, 2 * Filte_num);
    29b0:	f7 01       	movw	r30, r14
    29b2:	28 2d       	mov	r18, r8
    29b4:	11 92       	st	Z+, r1
    29b6:	2a 95       	dec	r18
    29b8:	e9 f7       	brne	.-6      	; 0x29b4 <main+0x1be>
			for (unsigned char i = 0; i < Filte_num; i++)
			{
				Filte_CntV[2 * i] += sum_flow << 8;
				Filte_CntV[2 * i + 1] += sum_flow;
    29ba:	d2 01       	movw	r26, r4
    29bc:	6c 91       	ld	r22, X
    29be:	f5 01       	movw	r30, r10
    29c0:	c7 01       	movw	r24, r14
    29c2:	16 01       	movw	r2, r12
    29c4:	40 81       	ld	r20, Z
    29c6:	46 0f       	add	r20, r22
    29c8:	40 83       	st	Z, r20
				//检测滤芯寿命是否到期
				if (((Filte_CntV[2 * i] << 8) | Filte_CntV[2 * i + 1]) > ((Iint_Filte_CntV[2 * i] << 8) | Iint_Filte_CntV[2 * i + 1]))
    29ca:	dc 01       	movw	r26, r24
    29cc:	2c 91       	ld	r18, X
    29ce:	50 e0       	ldi	r21, 0x00	; 0
    29d0:	52 2b       	or	r21, r18
    29d2:	91 01       	movw	r18, r2
    29d4:	21 50       	subi	r18, 0x01	; 1
    29d6:	31 09       	sbc	r19, r1
    29d8:	d9 01       	movw	r26, r18
    29da:	2c 91       	ld	r18, X
    29dc:	30 e0       	ldi	r19, 0x00	; 0
    29de:	32 2f       	mov	r19, r18
    29e0:	22 27       	eor	r18, r18
    29e2:	d1 01       	movw	r26, r2
    29e4:	7c 91       	ld	r23, X
    29e6:	27 2b       	or	r18, r23
    29e8:	24 17       	cp	r18, r20
    29ea:	35 07       	cpc	r19, r21
    29ec:	1c f4       	brge	.+6      	; 0x29f4 <main+0x1fe>
				{
					Filte_CntV[2 * i] = 0;
    29ee:	dc 01       	movw	r26, r24
    29f0:	1c 92       	st	X, r1
					Filte_CntV[2 * i + 1] = 0;
    29f2:	10 82       	st	Z, r1
    29f4:	32 96       	adiw	r30, 0x02	; 2
    29f6:	02 96       	adiw	r24, 0x02	; 2
    29f8:	b2 e0       	ldi	r27, 0x02	; 2
    29fa:	2b 0e       	add	r2, r27
    29fc:	31 1c       	adc	r3, r1
			Write_PURE_EEPROM(tds1);
			Write_RAW_EEPROM(tds2);
			Write_VIUV_TIME_EEPROM(sum_viuv_time);//一次制水还没有冲洗的时间(分钟)

			memset(Filte_CntV, 0, 2 * Filte_num);
			for (unsigned char i = 0; i < Filte_num; i++)
    29fe:	e0 17       	cp	r30, r16
    2a00:	f1 07       	cpc	r31, r17
    2a02:	01 f7       	brne	.-64     	; 0x29c4 <main+0x1ce>
				{
					Filte_CntV[2 * i] = 0;
					Filte_CntV[2 * i + 1] = 0;
				}
			}
			Write_Filte_CntV_EEPROM(Filte_CntV);
    2a04:	c7 01       	movw	r24, r14
    2a06:	0e 94 a6 02 	call	0x54c	; 0x54c <Write_Filte_CntV_EEPROM>
			SET_FLOW_L(sum_flow);
    2a0a:	80 91 b0 04 	lds	r24, 0x04B0
    2a0e:	90 91 b1 04 	lds	r25, 0x04B1
    2a12:	0e 94 16 0e 	call	0x1c2c	; 0x1c2c <SET_FLOW_L>
			Write_Init_EEPROM();
    2a16:	0e 94 07 01 	call	0x20e	; 0x20e <Write_Init_EEPROM>

			eeprom_write_flag = 0;
    2a1a:	31 2c       	mov	r3, r1
    2a1c:	3d cf       	rjmp	.-390    	; 0x2898 <main+0xa2>

00002a1e <USART0_Init>:


//-------------------USART0--------------
static void USART0_GPIO_Init(void)
{
	DDRE |=	0x1<<PE1;//TXD为输出
    2a1e:	11 9a       	sbi	0x02, 1	; 2
	DDRE &=	 ~(0x1<<PE0);
    2a20:	10 98       	cbi	0x02, 0	; 2
	PORTE &= 0xFF;
    2a22:	83 b1       	in	r24, 0x03	; 3
    2a24:	83 b9       	out	0x03, r24	; 3
}
static void USART0_Mode_Init(void)
{
	UCSR0A = 0x00;
    2a26:	1b b8       	out	0x0b, r1	; 11
	UCSR0B = 0x00;
    2a28:	1a b8       	out	0x0a, r1	; 10
	UCSR0C = 0x00;
    2a2a:	e5 e9       	ldi	r30, 0x95	; 149
    2a2c:	f0 e0       	ldi	r31, 0x00	; 0
    2a2e:	10 82       	st	Z, r1
	//波特率设置115200
	UBRR0H = 0;
    2a30:	10 92 90 00 	sts	0x0090, r1
	UBRR0L = 5;
    2a34:	85 e0       	ldi	r24, 0x05	; 5
    2a36:	89 b9       	out	0x09, r24	; 9
	//UBRR0L = 6;
	
	UCSR0B |= (1<<RXCIE0)|(1<<TXCIE0)|(1<<RXEN0)|(1<<TXEN0);
    2a38:	8a b1       	in	r24, 0x0a	; 10
    2a3a:	88 6d       	ori	r24, 0xD8	; 216
    2a3c:	8a b9       	out	0x0a, r24	; 10
	//发送的8个数据位
	UCSR0C |= (1<<UCSZ1)|(1<<UCSZ0);
    2a3e:	80 81       	ld	r24, Z
    2a40:	86 60       	ori	r24, 0x06	; 6
    2a42:	80 83       	st	Z, r24
    2a44:	08 95       	ret

00002a46 <USART0_Transmit>:
	USART0_GPIO_Init();
	USART0_Mode_Init();
}
void USART0_Transmit(unsigned char data)
{
	while(!(UCSR0A & (1<<UDRE0)));
    2a46:	5d 9b       	sbis	0x0b, 5	; 11
    2a48:	fe cf       	rjmp	.-4      	; 0x2a46 <USART0_Transmit>
	UDR0 = data;
    2a4a:	8c b9       	out	0x0c, r24	; 12
    2a4c:	08 95       	ret

00002a4e <__vector_18>:
	}	
	return Data;
}
#if 1
SIGNAL(USART0_RX_vect)
{
    2a4e:	1f 92       	push	r1
    2a50:	0f 92       	push	r0
    2a52:	0f b6       	in	r0, 0x3f	; 63
    2a54:	0f 92       	push	r0
    2a56:	11 24       	eor	r1, r1
#if 0
	unsigned char tmp = USART0_Receive() ;
	USART0_Transmit(tmp);
#endif
}
    2a58:	0f 90       	pop	r0
    2a5a:	0f be       	out	0x3f, r0	; 63
    2a5c:	0f 90       	pop	r0
    2a5e:	1f 90       	pop	r1
    2a60:	18 95       	reti

00002a62 <__vector_20>:
#endif 

SIGNAL(USART0_TX_vect)
{
    2a62:	1f 92       	push	r1
    2a64:	0f 92       	push	r0
    2a66:	0f b6       	in	r0, 0x3f	; 63
    2a68:	0f 92       	push	r0
    2a6a:	11 24       	eor	r1, r1
	
	//BEEP(20);

}
    2a6c:	0f 90       	pop	r0
    2a6e:	0f be       	out	0x3f, r0	; 63
    2a70:	0f 90       	pop	r0
    2a72:	1f 90       	pop	r1
    2a74:	18 95       	reti

00002a76 <USART1_Init>:

//-------------------USART1--------------
static void USART1_GPIO_Init(void)
{
	DDRD |=		0x1<<PD3;//TXD为输出
    2a76:	8b 9a       	sbi	0x11, 3	; 17
	DDRD &=     ~(0x1<<PD2);
    2a78:	8a 98       	cbi	0x11, 2	; 17
	PORTD &=	0xFF;
    2a7a:	82 b3       	in	r24, 0x12	; 18
    2a7c:	82 bb       	out	0x12, r24	; 18
}
static void USART1_Mode_Init(void)
{
	UCSR1A = 0x00;
    2a7e:	10 92 9b 00 	sts	0x009B, r1
	UCSR1B = 0x00;
    2a82:	aa e9       	ldi	r26, 0x9A	; 154
    2a84:	b0 e0       	ldi	r27, 0x00	; 0
    2a86:	1c 92       	st	X, r1
	UCSR1C = 0x00;
    2a88:	ed e9       	ldi	r30, 0x9D	; 157
    2a8a:	f0 e0       	ldi	r31, 0x00	; 0
    2a8c:	10 82       	st	Z, r1
	//波特率设置(115200)(GPRS模块的初始化波特率是115200)
	UBRR1H = 0;
    2a8e:	10 92 98 00 	sts	0x0098, r1
	UBRR1L = 5;
    2a92:	85 e0       	ldi	r24, 0x05	; 5
    2a94:	80 93 99 00 	sts	0x0099, r24
	//UBRR1L = 6;
	
	UCSR1B |= (1<<RXCIE1)|(1<<TXCIE1)|(1<<RXEN1)|(1<<TXEN1);
    2a98:	8c 91       	ld	r24, X
    2a9a:	88 6d       	ori	r24, 0xD8	; 216
    2a9c:	8c 93       	st	X, r24
	//发送的8个数据位
	UCSR1C |= (1<<UCSZ1)|(1<<UCSZ0);
    2a9e:	80 81       	ld	r24, Z
    2aa0:	86 60       	ori	r24, 0x06	; 6
    2aa2:	80 83       	st	Z, r24
    2aa4:	08 95       	ret

00002aa6 <USART1_Transmit>:
	USART1_GPIO_Init();
	USART1_Mode_Init();
}
void USART1_Transmit(unsigned char data)
{
	while(!(UCSR1A & (1<<UDRE1)));
    2aa6:	eb e9       	ldi	r30, 0x9B	; 155
    2aa8:	f0 e0       	ldi	r31, 0x00	; 0
    2aaa:	90 81       	ld	r25, Z
    2aac:	95 ff       	sbrs	r25, 5
    2aae:	fd cf       	rjmp	.-6      	; 0x2aaa <USART1_Transmit+0x4>
	UDR1 = data;
    2ab0:	80 93 9c 00 	sts	0x009C, r24
    2ab4:	08 95       	ret

00002ab6 <USART1_Transmit_String>:
}
void USART1_Transmit_String(unsigned char *Data)
{
    2ab6:	1f 93       	push	r17
    2ab8:	cf 93       	push	r28
    2aba:	df 93       	push	r29
    2abc:	ec 01       	movw	r28, r24
	unsigned char i ;
	for(i = 0;(*(Data+i)) != '\0';i ++)
    2abe:	88 81       	ld	r24, Y
    2ac0:	88 23       	and	r24, r24
    2ac2:	51 f0       	breq	.+20     	; 0x2ad8 <USART1_Transmit_String+0x22>
    2ac4:	10 e0       	ldi	r17, 0x00	; 0
	{
		USART1_Transmit(*(Data+i));
    2ac6:	0e 94 53 15 	call	0x2aa6	; 0x2aa6 <USART1_Transmit>
	UDR1 = data;
}
void USART1_Transmit_String(unsigned char *Data)
{
	unsigned char i ;
	for(i = 0;(*(Data+i)) != '\0';i ++)
    2aca:	1f 5f       	subi	r17, 0xFF	; 255
    2acc:	fe 01       	movw	r30, r28
    2ace:	e1 0f       	add	r30, r17
    2ad0:	f1 1d       	adc	r31, r1
    2ad2:	80 81       	ld	r24, Z
    2ad4:	81 11       	cpse	r24, r1
    2ad6:	f7 cf       	rjmp	.-18     	; 0x2ac6 <USART1_Transmit_String+0x10>
	{
		USART1_Transmit(*(Data+i));
	}
}
    2ad8:	df 91       	pop	r29
    2ada:	cf 91       	pop	r28
    2adc:	1f 91       	pop	r17
    2ade:	08 95       	ret

00002ae0 <USART1_Transmit_nChar>:
void USART1_Transmit_nChar(unsigned char *Data,unsigned char n)
{
    2ae0:	1f 93       	push	r17
    2ae2:	cf 93       	push	r28
    2ae4:	df 93       	push	r29
	while(n--)
    2ae6:	66 23       	and	r22, r22
    2ae8:	41 f0       	breq	.+16     	; 0x2afa <USART1_Transmit_nChar+0x1a>
    2aea:	c8 2f       	mov	r28, r24
    2aec:	d9 2f       	mov	r29, r25
    2aee:	16 2f       	mov	r17, r22
	{
		USART1_Transmit(*(Data++));
    2af0:	89 91       	ld	r24, Y+
    2af2:	0e 94 53 15 	call	0x2aa6	; 0x2aa6 <USART1_Transmit>
    2af6:	11 50       	subi	r17, 0x01	; 1
		USART1_Transmit(*(Data+i));
	}
}
void USART1_Transmit_nChar(unsigned char *Data,unsigned char n)
{
	while(n--)
    2af8:	d9 f7       	brne	.-10     	; 0x2af0 <USART1_Transmit_nChar+0x10>
	{
		USART1_Transmit(*(Data++));
	}
}
    2afa:	df 91       	pop	r29
    2afc:	cf 91       	pop	r28
    2afe:	1f 91       	pop	r17
    2b00:	08 95       	ret

00002b02 <USART1_Receive>:
unsigned char USART1_Receive(void)
{
	while (!(UCSR1A & (1 << RXC1)));
    2b02:	eb e9       	ldi	r30, 0x9B	; 155
    2b04:	f0 e0       	ldi	r31, 0x00	; 0
    2b06:	80 81       	ld	r24, Z
    2b08:	88 23       	and	r24, r24
    2b0a:	ec f7       	brge	.-6      	; 0x2b06 <USART1_Receive+0x4>
	return UDR1;	
    2b0c:	80 91 9c 00 	lds	r24, 0x009C
}
    2b10:	08 95       	ret

00002b12 <__vector_30>:
unsigned char GPRS_Receive_Num = 0;
unsigned char GPRS_Receive_Type = 0;//数据的类型AT指令，错误信息，Ok信息，数据信息
unsigned int GPRS_Receive_Flag = 1;//0的时候可以操作数据，1的时候不可以操作数据

SIGNAL(USART1_RX_vect)
{
    2b12:	1f 92       	push	r1
    2b14:	0f 92       	push	r0
    2b16:	0f b6       	in	r0, 0x3f	; 63
    2b18:	0f 92       	push	r0
    2b1a:	11 24       	eor	r1, r1
    2b1c:	2f 93       	push	r18
    2b1e:	3f 93       	push	r19
    2b20:	4f 93       	push	r20
    2b22:	5f 93       	push	r21
    2b24:	6f 93       	push	r22
    2b26:	7f 93       	push	r23
    2b28:	8f 93       	push	r24
    2b2a:	9f 93       	push	r25
    2b2c:	af 93       	push	r26
    2b2e:	bf 93       	push	r27
    2b30:	cf 93       	push	r28
    2b32:	ef 93       	push	r30
    2b34:	ff 93       	push	r31
	//GPRS_Receive_Flag = 0;
	unsigned char tmp =  USART1_Receive();
    2b36:	0e 94 81 15 	call	0x2b02	; 0x2b02 <USART1_Receive>
    2b3a:	c8 2f       	mov	r28, r24
	USART0_Transmit(tmp);
    2b3c:	0e 94 23 15 	call	0x2a46	; 0x2a46 <USART0_Transmit>
	if(!GPRS_Receive_Num)
    2b40:	90 91 bf 04 	lds	r25, 0x04BF
    2b44:	91 11       	cpse	r25, r1
    2b46:	0b c0       	rjmp	.+22     	; 0x2b5e <__vector_30+0x4c>
	{
		if(tmp == '>')
    2b48:	ce 33       	cpi	r28, 0x3E	; 62
    2b4a:	49 f4       	brne	.+18     	; 0x2b5e <__vector_30+0x4c>
			GPRS_Receive_Flag |= 1<<3;	
    2b4c:	20 91 a5 01 	lds	r18, 0x01A5
    2b50:	30 91 a6 01 	lds	r19, 0x01A6
    2b54:	28 60       	ori	r18, 0x08	; 8
    2b56:	30 93 a6 01 	sts	0x01A6, r19
    2b5a:	20 93 a5 01 	sts	0x01A5, r18
	}
	GPRS_Receive[GPRS_Receive_Num] = tmp ;
    2b5e:	e9 2f       	mov	r30, r25
    2b60:	f0 e0       	ldi	r31, 0x00	; 0
    2b62:	e3 5e       	subi	r30, 0xE3	; 227
    2b64:	fa 4f       	sbci	r31, 0xFA	; 250
    2b66:	c0 83       	st	Z, r28
//	USART0_Transmit(GPRS_Receive[GPRS_Receive_Num]);
	GPRS_Receive_Num ++;
    2b68:	9f 5f       	subi	r25, 0xFF	; 255
    2b6a:	90 93 bf 04 	sts	0x04BF, r25
#if 1
	 if(GPRS_Receive[GPRS_Receive_Num-1] == '\n')
    2b6e:	89 2f       	mov	r24, r25
    2b70:	90 e0       	ldi	r25, 0x00	; 0
    2b72:	fc 01       	movw	r30, r24
    2b74:	e4 5e       	subi	r30, 0xE4	; 228
    2b76:	fa 4f       	sbci	r31, 0xFA	; 250
    2b78:	20 81       	ld	r18, Z
    2b7a:	2a 30       	cpi	r18, 0x0A	; 10
    2b7c:	09 f0       	breq	.+2      	; 0x2b80 <__vector_30+0x6e>
    2b7e:	f9 c0       	rjmp	.+498    	; 0x2d72 <__vector_30+0x260>
	{
		GPRS_Receive[GPRS_Receive_Num] = '\0';
    2b80:	fc 01       	movw	r30, r24
    2b82:	e3 5e       	subi	r30, 0xE3	; 227
    2b84:	fa 4f       	sbci	r31, 0xFA	; 250
    2b86:	10 82       	st	Z, r1

		GPRS_Receive_Num = 0;
    2b88:	10 92 bf 04 	sts	0x04BF, r1
		
		if(strstr(GPRS_Receive,"+CME ERROR:"))
    2b8c:	6c ee       	ldi	r22, 0xEC	; 236
    2b8e:	73 e0       	ldi	r23, 0x03	; 3
    2b90:	8d e1       	ldi	r24, 0x1D	; 29
    2b92:	95 e0       	ldi	r25, 0x05	; 5
    2b94:	0e 94 57 17 	call	0x2eae	; 0x2eae <strstr>
    2b98:	89 2b       	or	r24, r25
    2b9a:	49 f0       	breq	.+18     	; 0x2bae <__vector_30+0x9c>
		{
			//LCD_Ico &= ~(0x01 << 7);
			GPRS_Receive_Flag |= 1<<1;
    2b9c:	80 91 a5 01 	lds	r24, 0x01A5
    2ba0:	90 91 a6 01 	lds	r25, 0x01A6
    2ba4:	82 60       	ori	r24, 0x02	; 2
    2ba6:	90 93 a6 01 	sts	0x01A6, r25
    2baa:	80 93 a5 01 	sts	0x01A5, r24
		}
		if(strstr(GPRS_Receive,"+CIPRCV:"))
    2bae:	68 ef       	ldi	r22, 0xF8	; 248
    2bb0:	73 e0       	ldi	r23, 0x03	; 3
    2bb2:	8d e1       	ldi	r24, 0x1D	; 29
    2bb4:	95 e0       	ldi	r25, 0x05	; 5
    2bb6:	0e 94 57 17 	call	0x2eae	; 0x2eae <strstr>
    2bba:	89 2b       	or	r24, r25
    2bbc:	49 f0       	breq	.+18     	; 0x2bd0 <__vector_30+0xbe>
			GPRS_Receive_Flag |= 1<<2;
    2bbe:	80 91 a5 01 	lds	r24, 0x01A5
    2bc2:	90 91 a6 01 	lds	r25, 0x01A6
    2bc6:	84 60       	ori	r24, 0x04	; 4
    2bc8:	90 93 a6 01 	sts	0x01A6, r25
    2bcc:	80 93 a5 01 	sts	0x01A5, r24
		if(strstr(GPRS_Receive,"OK"))
    2bd0:	60 e6       	ldi	r22, 0x60	; 96
    2bd2:	74 e0       	ldi	r23, 0x04	; 4
    2bd4:	8d e1       	ldi	r24, 0x1D	; 29
    2bd6:	95 e0       	ldi	r25, 0x05	; 5
    2bd8:	0e 94 57 17 	call	0x2eae	; 0x2eae <strstr>
    2bdc:	89 2b       	or	r24, r25
    2bde:	49 f0       	breq	.+18     	; 0x2bf2 <__vector_30+0xe0>
		{
			GPRS_Receive_Flag |= 1<<4;
    2be0:	80 91 a5 01 	lds	r24, 0x01A5
    2be4:	90 91 a6 01 	lds	r25, 0x01A6
    2be8:	80 61       	ori	r24, 0x10	; 16
    2bea:	90 93 a6 01 	sts	0x01A6, r25
    2bee:	80 93 a5 01 	sts	0x01A5, r24
		//	LCD_Ico |= 0x01 << 7;
			
		}
			
		if(GPRS_Receive[0] == 0 || strstr(GPRS_Receive,"Waiting ..."))
    2bf2:	80 91 1d 05 	lds	r24, 0x051D
    2bf6:	88 23       	and	r24, r24
    2bf8:	41 f0       	breq	.+16     	; 0x2c0a <__vector_30+0xf8>
    2bfa:	61 e0       	ldi	r22, 0x01	; 1
    2bfc:	74 e0       	ldi	r23, 0x04	; 4
    2bfe:	8d e1       	ldi	r24, 0x1D	; 29
    2c00:	95 e0       	ldi	r25, 0x05	; 5
    2c02:	0e 94 57 17 	call	0x2eae	; 0x2eae <strstr>
    2c06:	89 2b       	or	r24, r25
    2c08:	71 f0       	breq	.+28     	; 0x2c26 <__vector_30+0x114>
		{
			GPRS_Receive_Flag |= 1<< 5;
    2c0a:	80 91 a5 01 	lds	r24, 0x01A5
    2c0e:	90 91 a6 01 	lds	r25, 0x01A6
    2c12:	80 62       	ori	r24, 0x20	; 32
    2c14:	90 93 a6 01 	sts	0x01A6, r25
    2c18:	80 93 a5 01 	sts	0x01A5, r24
			LCD_Ico &= ~(0x01 << 7);
    2c1c:	80 91 8b 04 	lds	r24, 0x048B
    2c20:	8f 77       	andi	r24, 0x7F	; 127
    2c22:	80 93 8b 04 	sts	0x048B, r24
			//LEDON;
		}
		if(strstr(GPRS_Receive,"+CIEV: READY"))
    2c26:	6d e0       	ldi	r22, 0x0D	; 13
    2c28:	74 e0       	ldi	r23, 0x04	; 4
    2c2a:	8d e1       	ldi	r24, 0x1D	; 29
    2c2c:	95 e0       	ldi	r25, 0x05	; 5
    2c2e:	0e 94 57 17 	call	0x2eae	; 0x2eae <strstr>
    2c32:	89 2b       	or	r24, r25
    2c34:	89 f0       	breq	.+34     	; 0x2c58 <__vector_30+0x146>
		{
			GPRS_Receive_Flag |= 1<<6;
    2c36:	80 91 a5 01 	lds	r24, 0x01A5
    2c3a:	90 91 a6 01 	lds	r25, 0x01A6
    2c3e:	9c 01       	movw	r18, r24
    2c40:	20 64       	ori	r18, 0x40	; 64
    2c42:	30 93 a6 01 	sts	0x01A6, r19
    2c46:	20 93 a5 01 	sts	0x01A5, r18
			if(!(GPRS_Receive_Flag & (0x01<<8)))
    2c4a:	90 fd       	sbrc	r25, 0
    2c4c:	05 c0       	rjmp	.+10     	; 0x2c58 <__vector_30+0x146>
				LCD_Ico &= ~(0x01 << 7);
    2c4e:	80 91 8b 04 	lds	r24, 0x048B
    2c52:	8f 77       	andi	r24, 0x7F	; 127
    2c54:	80 93 8b 04 	sts	0x048B, r24
			//LEDOFF;
		}
		if( strstr(GPRS_Receive,"+CME ERROR:50"))
    2c58:	6a e1       	ldi	r22, 0x1A	; 26
    2c5a:	74 e0       	ldi	r23, 0x04	; 4
    2c5c:	8d e1       	ldi	r24, 0x1D	; 29
    2c5e:	95 e0       	ldi	r25, 0x05	; 5
    2c60:	0e 94 57 17 	call	0x2eae	; 0x2eae <strstr>
    2c64:	89 2b       	or	r24, r25
    2c66:	29 f0       	breq	.+10     	; 0x2c72 <__vector_30+0x160>
		{
				LCD_Ico &= ~(0x01 << 7);
    2c68:	80 91 8b 04 	lds	r24, 0x048B
    2c6c:	8f 77       	andi	r24, 0x7F	; 127
    2c6e:	80 93 8b 04 	sts	0x048B, r24
		}
		
		if(strstr(GPRS_Receive,"+CME ERROR:148"))
    2c72:	68 e2       	ldi	r22, 0x28	; 40
    2c74:	74 e0       	ldi	r23, 0x04	; 4
    2c76:	8d e1       	ldi	r24, 0x1D	; 29
    2c78:	95 e0       	ldi	r25, 0x05	; 5
    2c7a:	0e 94 57 17 	call	0x2eae	; 0x2eae <strstr>
    2c7e:	89 2b       	or	r24, r25
    2c80:	29 f0       	breq	.+10     	; 0x2c8c <__vector_30+0x17a>
		{
				LCD_Ico &= ~(0x01 << 7);			
    2c82:	80 91 8b 04 	lds	r24, 0x048B
    2c86:	8f 77       	andi	r24, 0x7F	; 127
    2c88:	80 93 8b 04 	sts	0x048B, r24
		}
		if( strstr(GPRS_Receive,"+CME ERROR:58"))
    2c8c:	67 e3       	ldi	r22, 0x37	; 55
    2c8e:	74 e0       	ldi	r23, 0x04	; 4
    2c90:	8d e1       	ldi	r24, 0x1D	; 29
    2c92:	95 e0       	ldi	r25, 0x05	; 5
    2c94:	0e 94 57 17 	call	0x2eae	; 0x2eae <strstr>
    2c98:	89 2b       	or	r24, r25
    2c9a:	71 f0       	breq	.+28     	; 0x2cb8 <__vector_30+0x1a6>
		{
				LCD_Ico &= ~(0x01 << 7);
    2c9c:	80 91 8b 04 	lds	r24, 0x048B
    2ca0:	8f 77       	andi	r24, 0x7F	; 127
    2ca2:	80 93 8b 04 	sts	0x048B, r24
				GPRS_Receive_Flag |= 1<<9;
    2ca6:	80 91 a5 01 	lds	r24, 0x01A5
    2caa:	90 91 a6 01 	lds	r25, 0x01A6
    2cae:	92 60       	ori	r25, 0x02	; 2
    2cb0:	90 93 a6 01 	sts	0x01A6, r25
    2cb4:	80 93 a5 01 	sts	0x01A5, r24
		}
		
		if(strstr(GPRS_Receive,"+CIEV: service,  1"))
    2cb8:	65 e4       	ldi	r22, 0x45	; 69
    2cba:	74 e0       	ldi	r23, 0x04	; 4
    2cbc:	8d e1       	ldi	r24, 0x1D	; 29
    2cbe:	95 e0       	ldi	r25, 0x05	; 5
    2cc0:	0e 94 57 17 	call	0x2eae	; 0x2eae <strstr>
    2cc4:	89 2b       	or	r24, r25
    2cc6:	79 f0       	breq	.+30     	; 0x2ce6 <__vector_30+0x1d4>
		{
			LCD_Ico |= 0x01 << 7;
    2cc8:	80 91 8b 04 	lds	r24, 0x048B
    2ccc:	80 68       	ori	r24, 0x80	; 128
    2cce:	80 93 8b 04 	sts	0x048B, r24
			GPRS_Receive_Flag |= 1<<8;
			GPRS_Receive_Flag |= 1<<7;			
    2cd2:	80 91 a5 01 	lds	r24, 0x01A5
    2cd6:	90 91 a6 01 	lds	r25, 0x01A6
    2cda:	80 68       	ori	r24, 0x80	; 128
    2cdc:	91 60       	ori	r25, 0x01	; 1
    2cde:	90 93 a6 01 	sts	0x01A6, r25
    2ce2:	80 93 a5 01 	sts	0x01A5, r24
			//LEDON;
		}
		if(strstr(GPRS_Receive,"CONNECT OK"))
    2ce6:	68 e5       	ldi	r22, 0x58	; 88
    2ce8:	74 e0       	ldi	r23, 0x04	; 4
    2cea:	8d e1       	ldi	r24, 0x1D	; 29
    2cec:	95 e0       	ldi	r25, 0x05	; 5
    2cee:	0e 94 57 17 	call	0x2eae	; 0x2eae <strstr>
    2cf2:	89 2b       	or	r24, r25
    2cf4:	71 f0       	breq	.+28     	; 0x2d12 <__vector_30+0x200>
		{
			LCD_Ico |= 0x01 << 7;
    2cf6:	80 91 8b 04 	lds	r24, 0x048B
    2cfa:	80 68       	ori	r24, 0x80	; 128
    2cfc:	80 93 8b 04 	sts	0x048B, r24
			GPRS_Receive_Flag |= 1<<7;
    2d00:	80 91 a5 01 	lds	r24, 0x01A5
    2d04:	90 91 a6 01 	lds	r25, 0x01A6
    2d08:	80 68       	ori	r24, 0x80	; 128
    2d0a:	90 93 a6 01 	sts	0x01A6, r25
    2d0e:	80 93 a5 01 	sts	0x01A5, r24
			//LEDON;
		}
		if(strstr(GPRS_Receive,"+CCID:"))
    2d12:	63 e6       	ldi	r22, 0x63	; 99
    2d14:	74 e0       	ldi	r23, 0x04	; 4
    2d16:	8d e1       	ldi	r24, 0x1D	; 29
    2d18:	95 e0       	ldi	r25, 0x05	; 5
    2d1a:	0e 94 57 17 	call	0x2eae	; 0x2eae <strstr>
    2d1e:	89 2b       	or	r24, r25
    2d20:	29 f0       	breq	.+10     	; 0x2d2c <__vector_30+0x21a>
		{
			LCD_Ico |= 0x01 << 6;
    2d22:	80 91 8b 04 	lds	r24, 0x048B
    2d26:	80 64       	ori	r24, 0x40	; 64
    2d28:	80 93 8b 04 	sts	0x048B, r24
		}
		if(strstr(GPRS_Receive,"+CSQ:"))
    2d2c:	6a e6       	ldi	r22, 0x6A	; 106
    2d2e:	74 e0       	ldi	r23, 0x04	; 4
    2d30:	8d e1       	ldi	r24, 0x1D	; 29
    2d32:	95 e0       	ldi	r25, 0x05	; 5
    2d34:	0e 94 57 17 	call	0x2eae	; 0x2eae <strstr>
    2d38:	89 2b       	or	r24, r25
    2d3a:	71 f0       	breq	.+28     	; 0x2d58 <__vector_30+0x246>
		{		
			SCQ = ((GPRS_Receive[6]-0x30)*10+ GPRS_Receive[7] - 0x30);
    2d3c:	90 91 24 05 	lds	r25, 0x0524
    2d40:	90 53       	subi	r25, 0x30	; 48
    2d42:	80 91 23 05 	lds	r24, 0x0523
    2d46:	88 0f       	add	r24, r24
    2d48:	80 56       	subi	r24, 0x60	; 96
    2d4a:	28 2f       	mov	r18, r24
    2d4c:	22 0f       	add	r18, r18
    2d4e:	22 0f       	add	r18, r18
    2d50:	82 0f       	add	r24, r18
    2d52:	89 0f       	add	r24, r25
    2d54:	80 93 8c 04 	sts	0x048C, r24
		}
		if(strstr(GPRS_Receive,"+CGATT:1"))
    2d58:	60 e7       	ldi	r22, 0x70	; 112
    2d5a:	74 e0       	ldi	r23, 0x04	; 4
    2d5c:	8d e1       	ldi	r24, 0x1D	; 29
    2d5e:	95 e0       	ldi	r25, 0x05	; 5
    2d60:	0e 94 57 17 	call	0x2eae	; 0x2eae <strstr>
    2d64:	89 2b       	or	r24, r25
    2d66:	29 f0       	breq	.+10     	; 0x2d72 <__vector_30+0x260>
		{
			LCD_Ico |= 0x01 << 7;
    2d68:	80 91 8b 04 	lds	r24, 0x048B
    2d6c:	80 68       	ori	r24, 0x80	; 128
    2d6e:	80 93 8b 04 	sts	0x048B, r24
		}
	}

#endif
	//GPRS_Receive_Flag = 0;
}
    2d72:	ff 91       	pop	r31
    2d74:	ef 91       	pop	r30
    2d76:	cf 91       	pop	r28
    2d78:	bf 91       	pop	r27
    2d7a:	af 91       	pop	r26
    2d7c:	9f 91       	pop	r25
    2d7e:	8f 91       	pop	r24
    2d80:	7f 91       	pop	r23
    2d82:	6f 91       	pop	r22
    2d84:	5f 91       	pop	r21
    2d86:	4f 91       	pop	r20
    2d88:	3f 91       	pop	r19
    2d8a:	2f 91       	pop	r18
    2d8c:	0f 90       	pop	r0
    2d8e:	0f be       	out	0x3f, r0	; 63
    2d90:	0f 90       	pop	r0
    2d92:	1f 90       	pop	r1
    2d94:	18 95       	reti

00002d96 <__vector_32>:

SIGNAL(USART1_TX_vect)
{
    2d96:	1f 92       	push	r1
    2d98:	0f 92       	push	r0
    2d9a:	0f b6       	in	r0, 0x3f	; 63
    2d9c:	0f 92       	push	r0
    2d9e:	11 24       	eor	r1, r1
	//USART0_Transmit_String("send GPRS cmd:");
	//USART0_Transmit(tmp);
	//BEEP(20);
}
    2da0:	0f 90       	pop	r0
    2da2:	0f be       	out	0x3f, r0	; 63
    2da4:	0f 90       	pop	r0
    2da6:	1f 90       	pop	r1
    2da8:	18 95       	reti

00002daa <__udivmodhi4>:
    2daa:	aa 1b       	sub	r26, r26
    2dac:	bb 1b       	sub	r27, r27
    2dae:	51 e1       	ldi	r21, 0x11	; 17
    2db0:	07 c0       	rjmp	.+14     	; 0x2dc0 <__udivmodhi4_ep>

00002db2 <__udivmodhi4_loop>:
    2db2:	aa 1f       	adc	r26, r26
    2db4:	bb 1f       	adc	r27, r27
    2db6:	a6 17       	cp	r26, r22
    2db8:	b7 07       	cpc	r27, r23
    2dba:	10 f0       	brcs	.+4      	; 0x2dc0 <__udivmodhi4_ep>
    2dbc:	a6 1b       	sub	r26, r22
    2dbe:	b7 0b       	sbc	r27, r23

00002dc0 <__udivmodhi4_ep>:
    2dc0:	88 1f       	adc	r24, r24
    2dc2:	99 1f       	adc	r25, r25
    2dc4:	5a 95       	dec	r21
    2dc6:	a9 f7       	brne	.-22     	; 0x2db2 <__udivmodhi4_loop>
    2dc8:	80 95       	com	r24
    2dca:	90 95       	com	r25
    2dcc:	bc 01       	movw	r22, r24
    2dce:	cd 01       	movw	r24, r26
    2dd0:	08 95       	ret

00002dd2 <__divmodsi4>:
    2dd2:	05 2e       	mov	r0, r21
    2dd4:	97 fb       	bst	r25, 7
    2dd6:	1e f4       	brtc	.+6      	; 0x2dde <__divmodsi4+0xc>
    2dd8:	00 94       	com	r0
    2dda:	0e 94 00 17 	call	0x2e00	; 0x2e00 <__negsi2>
    2dde:	57 fd       	sbrc	r21, 7
    2de0:	07 d0       	rcall	.+14     	; 0x2df0 <__divmodsi4_neg2>
    2de2:	0e 94 17 17 	call	0x2e2e	; 0x2e2e <__udivmodsi4>
    2de6:	07 fc       	sbrc	r0, 7
    2de8:	03 d0       	rcall	.+6      	; 0x2df0 <__divmodsi4_neg2>
    2dea:	4e f4       	brtc	.+18     	; 0x2dfe <__divmodsi4_exit>
    2dec:	0c 94 00 17 	jmp	0x2e00	; 0x2e00 <__negsi2>

00002df0 <__divmodsi4_neg2>:
    2df0:	50 95       	com	r21
    2df2:	40 95       	com	r20
    2df4:	30 95       	com	r19
    2df6:	21 95       	neg	r18
    2df8:	3f 4f       	sbci	r19, 0xFF	; 255
    2dfa:	4f 4f       	sbci	r20, 0xFF	; 255
    2dfc:	5f 4f       	sbci	r21, 0xFF	; 255

00002dfe <__divmodsi4_exit>:
    2dfe:	08 95       	ret

00002e00 <__negsi2>:
    2e00:	90 95       	com	r25
    2e02:	80 95       	com	r24
    2e04:	70 95       	com	r23
    2e06:	61 95       	neg	r22
    2e08:	7f 4f       	sbci	r23, 0xFF	; 255
    2e0a:	8f 4f       	sbci	r24, 0xFF	; 255
    2e0c:	9f 4f       	sbci	r25, 0xFF	; 255
    2e0e:	08 95       	ret

00002e10 <__umulhisi3>:
    2e10:	a2 9f       	mul	r26, r18
    2e12:	b0 01       	movw	r22, r0
    2e14:	b3 9f       	mul	r27, r19
    2e16:	c0 01       	movw	r24, r0
    2e18:	a3 9f       	mul	r26, r19
    2e1a:	70 0d       	add	r23, r0
    2e1c:	81 1d       	adc	r24, r1
    2e1e:	11 24       	eor	r1, r1
    2e20:	91 1d       	adc	r25, r1
    2e22:	b2 9f       	mul	r27, r18
    2e24:	70 0d       	add	r23, r0
    2e26:	81 1d       	adc	r24, r1
    2e28:	11 24       	eor	r1, r1
    2e2a:	91 1d       	adc	r25, r1
    2e2c:	08 95       	ret

00002e2e <__udivmodsi4>:
    2e2e:	a1 e2       	ldi	r26, 0x21	; 33
    2e30:	1a 2e       	mov	r1, r26
    2e32:	aa 1b       	sub	r26, r26
    2e34:	bb 1b       	sub	r27, r27
    2e36:	fd 01       	movw	r30, r26
    2e38:	0d c0       	rjmp	.+26     	; 0x2e54 <__udivmodsi4_ep>

00002e3a <__udivmodsi4_loop>:
    2e3a:	aa 1f       	adc	r26, r26
    2e3c:	bb 1f       	adc	r27, r27
    2e3e:	ee 1f       	adc	r30, r30
    2e40:	ff 1f       	adc	r31, r31
    2e42:	a2 17       	cp	r26, r18
    2e44:	b3 07       	cpc	r27, r19
    2e46:	e4 07       	cpc	r30, r20
    2e48:	f5 07       	cpc	r31, r21
    2e4a:	20 f0       	brcs	.+8      	; 0x2e54 <__udivmodsi4_ep>
    2e4c:	a2 1b       	sub	r26, r18
    2e4e:	b3 0b       	sbc	r27, r19
    2e50:	e4 0b       	sbc	r30, r20
    2e52:	f5 0b       	sbc	r31, r21

00002e54 <__udivmodsi4_ep>:
    2e54:	66 1f       	adc	r22, r22
    2e56:	77 1f       	adc	r23, r23
    2e58:	88 1f       	adc	r24, r24
    2e5a:	99 1f       	adc	r25, r25
    2e5c:	1a 94       	dec	r1
    2e5e:	69 f7       	brne	.-38     	; 0x2e3a <__udivmodsi4_loop>
    2e60:	60 95       	com	r22
    2e62:	70 95       	com	r23
    2e64:	80 95       	com	r24
    2e66:	90 95       	com	r25
    2e68:	9b 01       	movw	r18, r22
    2e6a:	ac 01       	movw	r20, r24
    2e6c:	bd 01       	movw	r22, r26
    2e6e:	cf 01       	movw	r24, r30
    2e70:	08 95       	ret

00002e72 <atoi>:
    2e72:	fc 01       	movw	r30, r24
    2e74:	88 27       	eor	r24, r24
    2e76:	99 27       	eor	r25, r25
    2e78:	e8 94       	clt
    2e7a:	21 91       	ld	r18, Z+
    2e7c:	20 32       	cpi	r18, 0x20	; 32
    2e7e:	e9 f3       	breq	.-6      	; 0x2e7a <atoi+0x8>
    2e80:	29 30       	cpi	r18, 0x09	; 9
    2e82:	10 f0       	brcs	.+4      	; 0x2e88 <atoi+0x16>
    2e84:	2e 30       	cpi	r18, 0x0E	; 14
    2e86:	c8 f3       	brcs	.-14     	; 0x2e7a <atoi+0x8>
    2e88:	2b 32       	cpi	r18, 0x2B	; 43
    2e8a:	41 f0       	breq	.+16     	; 0x2e9c <atoi+0x2a>
    2e8c:	2d 32       	cpi	r18, 0x2D	; 45
    2e8e:	39 f4       	brne	.+14     	; 0x2e9e <atoi+0x2c>
    2e90:	68 94       	set
    2e92:	04 c0       	rjmp	.+8      	; 0x2e9c <atoi+0x2a>
    2e94:	0e 94 71 17 	call	0x2ee2	; 0x2ee2 <__mulhi_const_10>
    2e98:	82 0f       	add	r24, r18
    2e9a:	91 1d       	adc	r25, r1
    2e9c:	21 91       	ld	r18, Z+
    2e9e:	20 53       	subi	r18, 0x30	; 48
    2ea0:	2a 30       	cpi	r18, 0x0A	; 10
    2ea2:	c0 f3       	brcs	.-16     	; 0x2e94 <atoi+0x22>
    2ea4:	1e f4       	brtc	.+6      	; 0x2eac <atoi+0x3a>
    2ea6:	90 95       	com	r25
    2ea8:	81 95       	neg	r24
    2eaa:	9f 4f       	sbci	r25, 0xFF	; 255
    2eac:	08 95       	ret

00002eae <strstr>:
    2eae:	fb 01       	movw	r30, r22
    2eb0:	51 91       	ld	r21, Z+
    2eb2:	55 23       	and	r21, r21
    2eb4:	a9 f0       	breq	.+42     	; 0x2ee0 <strstr+0x32>
    2eb6:	bf 01       	movw	r22, r30
    2eb8:	dc 01       	movw	r26, r24
    2eba:	4d 91       	ld	r20, X+
    2ebc:	45 17       	cp	r20, r21
    2ebe:	41 11       	cpse	r20, r1
    2ec0:	e1 f7       	brne	.-8      	; 0x2eba <strstr+0xc>
    2ec2:	59 f4       	brne	.+22     	; 0x2eda <strstr+0x2c>
    2ec4:	cd 01       	movw	r24, r26
    2ec6:	01 90       	ld	r0, Z+
    2ec8:	00 20       	and	r0, r0
    2eca:	49 f0       	breq	.+18     	; 0x2ede <strstr+0x30>
    2ecc:	4d 91       	ld	r20, X+
    2ece:	40 15       	cp	r20, r0
    2ed0:	41 11       	cpse	r20, r1
    2ed2:	c9 f3       	breq	.-14     	; 0x2ec6 <strstr+0x18>
    2ed4:	fb 01       	movw	r30, r22
    2ed6:	41 11       	cpse	r20, r1
    2ed8:	ef cf       	rjmp	.-34     	; 0x2eb8 <strstr+0xa>
    2eda:	81 e0       	ldi	r24, 0x01	; 1
    2edc:	90 e0       	ldi	r25, 0x00	; 0
    2ede:	01 97       	sbiw	r24, 0x01	; 1
    2ee0:	08 95       	ret

00002ee2 <__mulhi_const_10>:
    2ee2:	7a e0       	ldi	r23, 0x0A	; 10
    2ee4:	97 9f       	mul	r25, r23
    2ee6:	90 2d       	mov	r25, r0
    2ee8:	87 9f       	mul	r24, r23
    2eea:	80 2d       	mov	r24, r0
    2eec:	91 0d       	add	r25, r1
    2eee:	11 24       	eor	r1, r1
    2ef0:	08 95       	ret

00002ef2 <_exit>:
    2ef2:	f8 94       	cli

00002ef4 <__stop_program>:
    2ef4:	ff cf       	rjmp	.-2      	; 0x2ef4 <__stop_program>
